(dp0
(S'^'
p1
S'rh'
p2
tp3
I26
s(g1
S'id'
p4
tp5
I166
s(g1
S'pb'
p6
tp7
I2
s(S'c'
p8
S'u'
p9
tp10
I875
s(S'x'
p11
S'f'
p12
tp13
I33
s(S'i'
p14
S'h'
p15
tp16
I8
s(g1
S'u'
p17
tp18
I1
s(g1
S'uk'
p19
tp20
I2
s(g1
S'bi'
p21
tp22
I459
s(S'r'
p23
S'w'
p24
tp25
I145
s(g15
S's'
p26
tp27
I86
s(g1
S'xi'
p28
tp29
I2
s(S'n'
p30
S'o'
p31
tp32
I4043
s(g1
S'mt'
p33
tp34
I6
s(S'k'
p35
S'b'
p36
tp37
I3
s(g1
S'ta'
p38
tp39
I950
s(g1
S'lf'
p40
tp41
I1
s(g1
S'od'
p42
tp43
I27
s(g14
S'y'
p44
tp45
I4
s(S'z'
p46
g46
tp47
I74
s(S'd'
p48
S'q'
p49
tp50
I2
s(S't'
p51
g46
tp52
I97
s(g1
S'ii'
p53
tp54
I6
s(g31
g11
tp55
I119
s(g26
g31
tp56
I3594
s(g1
S'n'
p57
tp58
I23
s(g1
S'ne'
p59
tp60
I1359
s(g1
S'eo'
p61
tp62
I1
s(g1
S'dw'
p63
tp64
I21
s(g8
g30
tp65
I23
s(g1
S'wg'
p66
tp67
I1
s(g12
S'$'
p68
tp69
I8277
s(g9
g24
tp70
I22
s(g23
S'p'
p71
tp72
I284
s(S'e'
p73
g46
tp74
I148
s(g35
g44
tp75
I137
s(g71
g36
tp76
I16
s(S'g'
p77
g71
tp78
I3
s(g1
S'ub'
p79
tp80
I2
s(g12
g8
tp81
I21
s(g31
g24
tp82
I4111
s(g1
S'yu'
p83
tp84
I11
s(g1
S'ko'
p85
tp86
I10
s(g9
S'v'
p87
tp88
I13
s(g87
g48
tp89
I3
s(g1
S'bt'
p90
tp91
I2
s(g24
g48
tp92
I107
s(g1
S'ct'
p93
tp94
I4
s(g1
S'am'
p95
tp96
I326
s(g12
g23
tp97
I1799
s(g51
g35
tp98
I3
s(g1
S'vh'
p99
tp100
I2
s(g1
S'fr'
p101
tp102
I1698
s(g1
S'ev'
p103
tp104
I830
s(g1
S'nb'
p105
tp106
I3
s(S'm'
p107
g14
tp108
I2434
s(g23
g14
tp109
I5926
s(g8
g49
tp110
I13
s(g35
g71
tp111
I12
s(g1
S'ju'
p112
tp113
I848
s(g44
g48
tp114
I42
s(g15
g24
tp115
I23
s(S'a'
p116
g26
tp117
I8678
s(g46
S'l'
p118
tp119
I37
s(g1
S'sm'
p120
tp121
I408
s(g1
S'cs'
p122
tp123
I1
s(g1
S'wp'
p124
tp125
I1
s(g31
g9
tp126
I11279
s(g1
S'hd'
p127
tp128
I1
s(g107
g15
tp129
I70
s(g26
g35
tp130
I598
s(g1
S'pt'
p131
tp132
I4
s(g1
S'zy'
p133
tp134
I3
s(g73
g77
tp135
I701
s(g30
g51
tp136
I6192
s(g8
S'j'
p137
tp138
I1
s(g51
g14
tp139
I6896
s(g44
g71
tp140
I129
s(g1
S'te'
p141
tp142
I1115
s(g23
g36
tp143
I145
s(g46
g30
tp144
I2
s(g9
g26
tp145
I3663
s(g35
g24
tp146
I54
s(g1
S'us'
p147
tp148
I593
s(g14
g30
tp149
I22176
s(g1
S'v'
p150
tp151
I11
s(g73
g12
tp152
I947
s(g1
S'pw'
p153
tp154
I1
s(g1
S'oh'
p155
tp156
I234
s(g116
g9
tp157
I942
s(g1
S'ar'
p158
tp159
I1914
s(g1
S'et'
p160
tp161
I42
s(g1
S'bn'
p162
tp163
I1
s(g1
S'da'
p164
tp165
I811
s(g77
g51
tp166
I31
s(g1
S'fa'
p167
tp168
I1144
s(g1
S'gm'
p169
tp170
I4
s(g9
g23
tp171
I4004
s(g1
S'es'
p172
tp173
I137
s(g1
S'sd'
p174
tp175
I1
s(g1
S'af'
p176
tp177
I378
s(g1
S'ix'
p178
tp179
I1
s(g71
g77
tp180
I3
s(g12
g30
tp181
I10
s(g1
S'rp'
p182
tp183
I4
s(g1
S'ok'
p184
tp185
I46
s(g1
S'io'
p186
tp187
I7
s(g1
S'up'
p188
tp189
I1148
s(g51
g12
tp190
I58
s(g1
S'kb'
p191
tp192
I1
s(g1
S'eb'
p193
tp194
I23
s(g116
g24
tp195
I800
s(g30
g24
tp196
I60
s(g48
g12
tp197
I42
s(g26
g44
tp198
I278
s(g14
g116
tp199
I1215
s(g1
S'tn'
p200
tp201
I1
s(g48
g44
tp202
I521
s(g1
S'oc'
p203
tp204
I65
s(g48
g30
tp205
I76
s(g11
g31
tp206
I15
s(g73
g8
tp207
I2454
s(g1
S'fn'
p208
tp209
I1
s(g1
S'ax'
p210
tp211
I28
s(g8
g12
tp212
I3
s(g1
S'nn'
p213
tp214
I1
s(g30
g48
tp215
I11980
s(g1
S'ej'
p216
tp217
I2
s(g31
g68
tp218
I11850
s(g8
g51
tp219
I1892
s(g1
S'jy'
p220
tp221
I3
s(g24
g68
tp222
I2758
s(g1
S'ek'
p223
tp224
I4
s(g71
g51
tp225
I616
s(g44
g36
tp226
I75
s(g23
g11
tp227
I24
s(g1
S'h'
p228
tp229
I10
s(g73
g36
tp230
I212
s(g1
S'hi'
p231
tp232
I3696
s(g46
g14
tp233
I161
s(g35
g116
tp234
I265
s(g36
g68
tp235
I249
s(g1
S'if'
p236
tp237
I617
s(g77
g15
tp238
I3078
s(g14
g8
tp239
I5056
s(g1
S'gd'
p240
tp241
I1
s(g30
g15
tp242
I75
s(g1
S'um'
p243
tp244
I8
s(g71
g9
tp245
I939
s(g1
S'a'
p246
tp247
I6092
s(g1
S'tg'
p248
tp249
I2
s(g1
S'kw'
p250
tp251
I12
s(g49
g68
tp252
I9
s(g51
g26
tp253
I2168
s(g1
S'uq'
p254
tp255
I1
s(g1
S'g'
p256
tp257
I13
s(g1
S'mp'
p258
tp259
I6
s(g1
S'fw'
p260
tp261
I4
s(g107
g116
tp262
I4757
s(g23
g49
tp263
I9
s(g1
S'of'
p264
tp265
I6996
s(g30
g116
tp266
I2407
s(g1
S'ea'
p267
tp268
I437
s(g1
S'du'
p269
tp270
I449
s(g1
S'sv'
p271
tp272
I2
s(g1
S'we'
p273
tp274
I2740
s(g46
g48
tp275
I1
s(g1
S'le'
p276
tp277
I1385
s(g107
g87
tp278
I1
s(g26
g9
tp279
I1587
s(g1
S'qp'
p280
tp281
I1
s(g1
S'cv'
p282
tp283
I3
s(g26
g8
tp284
I1103
s(g1
S'vd'
p285
tp286
I1
s(g30
g36
tp287
I76
s(g1
S'rd'
p288
tp289
I1
s(g73
g31
tp290
I746
s(g1
S'rf'
p291
tp292
I4
s(g1
S'pi'
p293
tp294
I522
s(g14
g23
tp295
I2555
s(g44
g44
tp296
I21
s(g8
g36
tp297
I10
s(g137
g44
tp298
I3
s(g1
S'zo'
p299
tp300
I27
s(g23
g137
tp301
I2
s(g8
g71
tp302
I13
s(g1
S'gb'
p303
tp304
I1
s(g73
g30
tp305
I9601
s(g1
S'ip'
p306
tp307
I2
s(g31
g12
tp308
I7581
s(g1
S'ow'
p309
tp310
I165
s(g77
g118
tp311
I829
s(g1
S'au'
p312
tp313
I154
s(g1
S'mf'
p314
tp315
I1
s(g1
S'nj'
p316
tp317
I1
s(g48
g8
tp318
I79
s(g9
g46
tp319
I53
s(g48
g15
tp320
I13
s(g1
S'ln'
p321
tp322
I1
s(g118
g44
tp323
I4172
s(g24
g71
tp324
I6
s(g15
g36
tp325
I60
s(g14
g51
tp326
I9152
s(g12
g12
tp327
I1456
s(g107
g26
tp328
I750
s(g23
g8
tp329
I634
s(g1
S'it'
p330
tp331
I3463
s(g1
S'hb'
p332
tp333
I17
s(g1
S'ic'
p334
tp335
I108
s(g1
S'rm'
p336
tp337
I1
s(g1
S'pr'
p338
tp339
I1537
s(g77
g68
tp340
I10138
s(g11
g68
tp341
I274
s(g137
g12
tp342
I1
s(g51
g30
tp343
I73
s(g1
S'zd'
p344
tp345
I1
s(g31
g48
tp346
I1404
s(g15
g8
tp347
I6
s(g1
S'r'
p348
tp349
I9
s(g49
g36
tp350
I1
s(g1
S'ky'
p351
tp352
I1
s(g26
g49
tp353
I253
s(g11
g116
tp354
I174
s(g14
g14
tp355
I31
s(g48
g116
tp356
I1359
s(g1
S'tm'
p357
tp358
I3
s(g1
S'sz'
p359
tp360
I1
s(g11
g24
tp361
I3
s(g1
S'ao'
p362
tp363
I2
s(g1
S'in'
p364
tp365
I6172
s(g118
g24
tp366
I179
s(g73
g35
tp367
I185
s(g1
S'mm'
p368
tp369
I7
s(g1
S'dg'
p370
tp371
I1
s(g1
S'fc'
p372
tp373
I13
s(g1
S'wa'
p374
tp375
I4660
s(g1
S'do'
p376
tp377
I2535
s(g1
S'ns'
p378
tp379
I3
s(g1
S'ms'
p380
tp381
I15
s(g1
S'ep'
p382
tp383
I59
s(g1
S'eu'
p384
tp385
I34
s(g1
S'dy'
p386
tp387
I33
s(g1
S'sb'
p388
tp389
I4
s(g71
g118
tp390
I2322
s(g44
g137
tp391
I14
s(g31
g8
tp392
I1214
s(g1
S'ty'
p393
tp394
I34
s(g1
S'gi'
p395
tp396
I564
s(g73
g137
tp397
I26
s(g1
S'la'
p398
tp399
I1174
s(g46
g116
tp400
I181
s(g35
g14
tp401
I1571
s(g1
S'rr'
p402
tp403
I8
s(g1
S'az'
p404
tp405
I7
s(g1
S'gy'
p406
tp407
I3
s(g1
S'hs'
p408
tp409
I1
s(g44
g68
tp410
I16649
s(g14
g35
tp411
I994
s(g23
g68
tp412
I14407
s(g1
S'ye'
p413
tp414
I590
s(g1
S'co'
p415
tp416
I3861
s(g87
g51
tp417
I3
s(g15
g71
tp418
I2
s(g71
g107
tp419
I55
s(g49
g9
tp420
I1229
s(g118
g9
tp421
I896
s(g1
S'uh'
p422
tp423
I15
s(g1
S'aq'
p424
tp425
I9
s(g24
g51
tp426
I196
s(g15
g12
tp427
I25
s(g12
g36
tp428
I2
s(g1
S'tl'
p429
tp430
I8
s(g1
S'o'
p431
tp432
I140
s(g137
g15
tp433
I1
s(g1
S'iv'
p434
tp435
I8
s(g23
g44
tp436
I4069
s(g15
g49
tp437
I2
s(g30
g14
tp438
I2448
s(g31
g116
tp439
I624
s(g1
S'om'
p440
tp441
I8
s(g1
S'nh'
p442
tp443
I2
s(g1
S'ur'
p444
tp445
I26
s(g1
S'el'
p446
tp447
I451
s(g26
g30
tp448
I337
s(g107
g30
tp449
I69
s(g1
S'cc'
p450
tp451
I12
s(g26
g107
tp452
I558
s(g11
g73
tp453
I113
s(g1
S'dn'
p454
tp455
I1
s(g1
S'ht'
p456
tp457
I14
s(g30
g137
tp458
I56
s(g118
g26
tp459
I848
s(g1
S'sq'
p460
tp461
I141
s(g1
S'ia'
p462
tp463
I3
s(g14
g46
tp464
I485
s(g1
S'ra'
p465
tp466
I729
s(g8
g46
tp467
I2
s(g51
g44
tp468
I997
s(g1
S'hm'
p469
tp470
I1
s(g1
S'pn'
p471
tp472
I12
s(g1
S'iz'
p473
tp474
I2
s(g23
g23
tp475
I2714
s(g1
S'uo'
p476
tp477
I1
s(g1
S'bm'
p478
tp479
I2
s(g35
g77
tp480
I8
s(g116
g46
tp481
I158
s(g51
g15
tp482
I31015
s(g1
S'ku'
p483
tp484
I12
s(g1
S'ds'
p485
tp486
I1
s(g31
g30
tp487
I11523
s(g48
g51
tp488
I14
s(g87
g107
tp489
I1
s(g1
S'ab'
p490
tp491
I853
s(g26
g51
tp492
I8459
s(g77
g48
tp493
I5
s(g71
g26
tp494
I630
s(g1
S'or'
p495
tp496
I956
s(g48
g35
tp497
I64
s(g87
g71
tp498
I2
s(g1
S'ma'
p499
tp500
I2896
s(g15
g51
tp501
I1929
s(g1
S'ec'
p502
tp503
I76
s(g49
g14
tp504
I1
s(g1
S'st'
p505
tp506
I3019
s(g73
g68
tp507
I48463
s(g1
S'y'
p508
tp509
I4
s(g1
S'ey'
p510
tp511
I357
s(g107
g35
tp512
I2
s(g23
g35
tp513
I886
s(g1
S'sn'
p514
tp515
I304
s(g11
g15
tp516
I23
s(g137
g118
tp517
I1
s(g15
g9
tp518
I986
s(g1
S'kh'
p519
tp520
I13
s(g1
S'sk'
p521
tp522
I122
s(g51
g87
tp523
I39
s(g31
g118
tp524
I2537
s(g48
g23
tp525
I1069
s(g15
g35
tp526
I1
s(g1
S'uf'
p527
tp528
I1
s(g87
g31
tp529
I685
s(g1
S'za'
p530
tp531
I4
s(g24
g137
tp532
I5
s(g26
g14
tp533
I3355
s(g11
g14
tp534
I193
s(g1
S'sf'
p535
tp536
I3
s(g48
g14
tp537
I3273
s(g1
S'pc'
p538
tp539
I3
s(g1
S'ai'
p540
tp541
I186
s(g1
S'xx'
p542
tp543
I1
s(g137
g68
tp544
I12
s(g118
g31
tp545
I4305
s(g1
S'cn'
p546
tp547
I21
s(g44
g35
tp548
I1
s(g1
S'lp'
p549
tp550
I4
s(g1
S'ou'
p551
tp552
I1249
s(g23
g48
tp553
I2122
s(g8
g87
tp554
I6
s(g1
S'aw'
p555
tp556
I343
s(g137
g9
tp557
I884
s(g35
g9
tp558
I21
s(g1
S'dl'
p559
tp560
I1
s(g71
g87
tp561
I3
s(g1
S'fd'
p562
tp563
I3
s(g1
S'm'
p564
tp565
I11
s(g1
S'md'
p566
tp567
I1
s(g1
S'll'
p568
tp569
I2
s(g1
S'nt'
p570
tp571
I7
s(g71
g48
tp572
I15
s(g44
g23
tp573
I107
s(g31
g35
tp574
I1561
s(g1
S'si'
p575
tp576
I1344
s(g1
S'ef'
p577
tp578
I104
s(g46
g44
tp579
I44
s(g1
S'jo'
p580
tp581
I336
s(g87
g14
tp582
I1368
s(g1
S'vo'
p583
tp584
I480
s(g26
g71
tp585
I1410
s(g1
S'ro'
p586
tp587
I1577
s(g1
S'td'
p588
tp589
I2
s(g1
S'pp'
p590
tp591
I8
s(g51
g77
tp592
I14
s(g1
S'i'
p593
tp594
I2711
s(g8
g31
tp595
I4806
s(g71
g73
tp596
I3718
s(g49
g107
tp597
I1
s(g118
g107
tp598
I318
s(g107
g9
tp599
I1116
s(g15
g30
tp600
I214
s(g1
S'kg'
p601
tp602
I1
s(g1
S'ba'
p603
tp604
I1286
s(g1
S'br'
p605
tp606
I979
s(g11
g118
tp607
I2
s(g1
S'ti'
p608
tp609
I866
s(g77
g46
tp610
I3
s(g1
S'ol'
p611
tp612
I252
s(g15
g44
tp613
I507
s(g44
g51
tp614
I347
s(g31
g14
tp615
I1179
s(g35
g15
tp616
I232
s(g107
g51
tp617
I16
s(g44
g15
tp618
I17
s(g1
S'fm'
p619
tp620
I4
s(g15
g31
tp621
I4971
s(g107
g12
tp622
I96
s(g24
g30
tp623
I866
s(g26
g73
tp624
I6515
s(g1
S'ew'
p625
tp626
I1
s(g44
g73
tp627
I1081
s(g51
g73
tp628
I8161
s(g1
S'cf'
p629
tp630
I2
s(g1
S'jf'
p631
tp632
I1
s(g30
g23
tp633
I104
s(g118
g35
tp634
I400
s(g1
S'go'
p635
tp636
I1649
s(g1
S'py'
p637
tp638
I12
s(g14
g36
tp639
I542
s(g1
S't'
p640
tp641
I38
s(g8
g23
tp642
I1444
s(g1
S'ut'
p643
tp644
I26
s(g137
g14
tp645
I19
s(g30
g49
tp646
I33
s(g12
g44
tp647
I44
s(g23
g46
tp648
I19
s(g118
g46
tp649
I1
s(g46
g35
tp650
I7
s(g35
g31
tp651
I56
s(g1
S'mo'
p652
tp653
I1843
s(g1
S'bf'
p654
tp655
I1
s(g1
S'zu'
p656
tp657
I7
s(g48
g24
tp658
I57
s(g51
g71
tp659
I26
s(g1
S'hu'
p660
tp661
I689
s(g31
g87
tp662
I1379
s(g87
g73
tp663
I6393
s(g26
g118
tp664
I1179
s(g1
S'zi'
p665
tp666
I36
s(g1
S'og'
p667
tp668
I2
s(g1
S'de'
p669
tp670
I1311
s(g71
g35
tp671
I12
s(g44
g77
tp672
I6
s(g1
S'x'
p673
tp674
I14
s(g1
S'iu'
p675
tp676
I1
s(g8
g35
tp677
I2871
s(g1
S'ps'
p678
tp679
I30
s(g1
S'oy'
p680
tp681
I3
s(g118
g14
tp682
I5636
s(g1
S'vc'
p683
tp684
I2
s(g1
S'en'
p685
tp686
I694
s(g14
g48
tp687
I4681
s(g1
S'ca'
p688
tp689
I2378
s(g107
g8
tp690
I144
s(g23
g26
tp691
I2761
s(g11
g71
tp692
I363
s(g30
g8
tp693
I2103
s(g35
g12
tp694
I19
s(g118
g11
tp695
I4
s(g1
S'ed'
p696
tp697
I128
s(g1
S'pg'
p698
tp699
I3
s(g14
g9
tp700
I121
s(g1
S'ib'
p701
tp702
I8
s(g48
g9
tp703
I775
s(g1
S'l'
p704
tp705
I6
s(g87
g30
tp706
I1
s(g31
g51
tp707
I3782
s(g48
g46
tp708
I4
s(g116
g15
tp709
I187
s(g15
g68
tp710
I6021
s(g87
g77
tp711
I1
s(g24
g35
tp712
I41
s(g1
S'gh'
p713
tp714
I41
s(g1
S'ki'
p715
tp716
I414
s(g1
S'bc'
p717
tp718
I5
s(g24
g36
tp719
I22
s(g26
g116
tp720
I3595
s(g11
g49
tp721
I3
s(g1
S'mu'
p722
tp723
I888
s(g1
S'bu'
p724
tp725
I1854
s(g118
g77
tp726
I38
s(g1
S'al'
p727
tp728
I2439
s(g23
g118
tp729
I697
s(g1
S'd'
p730
tp731
I13
s(g1
S'fs'
p732
tp733
I2
s(g36
g71
tp734
I4
s(g1
S'op'
p735
tp736
I412
s(g71
g30
tp737
I32
s(g12
g9
tp738
I816
s(g1
S'nc'
p739
tp740
I5
s(g1
S'mc'
p741
tp742
I136
s(g118
g87
tp743
I224
s(g1
S'ee'
p744
tp745
I10
s(g1
S'di'
p746
tp747
I1667
s(g46
g31
tp748
I53
s(g1
S'sr'
p749
tp750
I3
s(g14
g24
tp751
I4
s(g44
g46
tp752
I10
s(g31
g26
tp753
I1998
s(g26
g46
tp754
I1
s(g1
S'li'
p755
tp756
I2292
s(g1
S'ny'
p757
tp758
I2
s(g116
g137
tp759
I48
s(g87
g116
tp760
I845
s(g24
g14
tp761
I3656
s(g26
g15
tp762
I4403
s(g1
S'cr'
p763
tp764
I837
s(g1
S'ws'
p765
tp766
I1
s(g1
S'on'
p767
tp768
I3319
s(g1
S'iy'
p769
tp770
I1
s(g1
S'he'
p771
tp772
I6540
s(g51
g31
tp773
I9886
s(g8
g77
tp774
I81
s(g1
S'pu'
p775
tp776
I732
s(g1
S's'
p777
tp778
I10
s(g118
g73
tp779
I8556
s(g107
g107
tp780
I566
s(g23
g73
tp781
I12800
s(g1
S'kl'
p782
tp783
I14
s(g35
g51
tp784
I21
s(g36
g23
tp785
I1238
s(g1
S'hy'
p786
tp787
I78
s(g11
g51
tp788
I376
s(g1
S'ul'
p789
tp790
I8
s(g118
g51
tp791
I752
s(g1
S'ak'
p792
tp793
I1
s(g77
g23
tp794
I1816
s(g15
g116
tp795
I10997
s(g1
S'ji'
p796
tp797
I13
s(g30
g44
tp798
I1048
s(g31
g49
tp799
I11
s(g107
g118
tp800
I54
s(g1
S'rt'
p801
tp802
I4
s(g116
g118
tp803
I7389
s(g87
g8
tp804
I4
s(g24
g31
tp805
I2079
s(g1
S'db'
p806
tp807
I5
s(g1
S'q'
p808
tp809
I2
s(g36
g26
tp810
I294
s(g1
S'ts'
p811
tp812
I7
s(g24
g12
tp813
I31
s(g11
g9
tp814
I12
s(g44
g107
tp815
I101
s(g51
g107
tp816
I130
s(g9
g73
tp817
I921
s(g1
S'er'
p818
tp819
I101
s(g1
S'sg'
p820
tp821
I10
s(g30
g46
tp822
I23
s(g1
S'cm'
p823
tp824
I3
s(g1
S'ja'
p825
tp826
I190
s(g118
g8
tp827
I134
s(g1
S'lt'
p828
tp829
I2
s(g1
S'vi'
p830
tp831
I350
s(g14
g137
tp832
I4
s(g46
g68
tp833
I256
s(g36
g51
tp834
I50
s(g137
g116
tp835
I204
s(g1
S'ri'
p836
tp837
I1311
s(g116
g68
tp838
I7957
s(g77
g44
tp839
I96
s(g118
g23
tp840
I78
s(g9
g48
tp841
I1116
s(g14
g68
tp842
I2915
s(g1
S'vw'
p843
tp844
I1
s(g26
g87
tp845
I4
s(g1
S'tu'
p846
tp847
I533
s(g1
S'ke'
p848
tp849
I241
s(g46
g9
tp850
I12
s(g48
g48
tp851
I864
s(g116
g30
tp852
I16017
s(g24
g107
tp853
I7
s(g26
g48
tp854
I26
s(g36
g9
tp855
I2018
s(g1
S'to'
p856
tp857
I7585
s(g71
g8
tp858
I58
s(g44
g31
tp859
I3544
s(g1
S'ob'
p860
tp861
I137
s(g51
g68
tp862
I24806
s(g8
g8
tp863
I315
s(g15
g48
tp864
I30
s(g1
S'fo'
p865
tp866
I2940
s(g118
g116
tp867
I3796
s(g1
S'gr'
p868
tp869
I1301
s(g14
g118
tp870
I3462
s(g1
S'no'
p871
tp872
I2670
s(g1
S'ei'
p873
tp874
I115
s(g36
g87
tp875
I29
s(g11
g11
tp876
I1
s(g30
g35
tp877
I914
s(g35
g30
tp878
I808
s(g118
g71
tp879
I231
s(g77
g87
tp880
I1
s(g15
g73
tp881
I31885
s(g1
S'ch'
p882
tp883
I1152
s(g73
g9
tp884
I144
s(g1
S'wy'
p885
tp886
I10
s(g48
g36
tp887
I38
s(g1
S'ie'
p888
tp889
I3
s(g1
S'j'
p890
tp891
I7
s(g24
g8
tp892
I6
s(g1
S'ya'
p893
tp894
I69
s(g36
g24
tp895
I4
s(g24
g46
tp896
I1
s(g1
S'pa'
p897
tp898
I1359
s(g11
g44
tp899
I7
s(g1
S'ga'
p900
tp901
I494
s(g9
g116
tp902
I604
s(g1
S'ft'
p903
tp904
I5
s(g1
S'kn'
p905
tp906
I748
s(g1
S'is'
p907
tp908
I1835
s(g73
g51
tp909
I3813
s(g137
g26
tp910
I1
s(g71
g71
tp911
I1323
s(g1
S'oe'
p912
tp913
I62
s(g23
g51
tp914
I2829
s(g1
S'cw'
p915
tp916
I2
s(g1
S'ag'
p917
tp918
I551
s(g36
g11
tp919
I1
s(g137
g73
tp920
I346
s(g35
g73
tp921
I3593
s(g71
g12
tp922
I7
s(g12
g107
tp923
I7
s(g1
S'vs'
p924
tp925
I1
s(g118
g30
tp926
I13
s(g26
g23
tp927
I21
s(g1
S'sy'
p928
tp929
I167
s(g1
S'wd'
p930
tp931
I1
s(g116
g36
tp932
I1782
s(g87
g44
tp933
I45
s(g24
g116
tp934
I5791
s(g1
S'hp'
p935
tp936
I1
s(g36
g44
tp937
I1076
s(g1
S'cy'
p938
tp939
I25
s(g51
g24
tp940
I725
s(g1
S've'
p941
tp942
I681
s(g15
g15
tp943
I111
s(g1
S're'
p944
tp945
I2513
s(g1
S'wl'
p946
tp947
I2
s(g107
g73
tp948
I5946
s(g23
g107
tp949
I1407
s(g1
S'gn'
p950
tp951
I17
s(g30
g73
tp952
I6382
s(g1
S'dv'
p953
tp954
I3
s(g1
S'uc'
p955
tp956
I1
s(g1
S'ly'
p957
tp958
I61
s(g1
S'bl'
p959
tp960
I610
s(g1
S'tb'
p961
tp962
I6
s(g1
S'wz'
p963
tp964
I1
s(g77
g26
tp965
I476
s(g118
g118
tp966
I5838
s(g1
S'aj'
p967
tp968
I2
s(g1
S'vp'
p969
tp970
I2
s(g15
g14
tp971
I8281
s(g31
g44
tp972
I527
s(g73
g49
tp973
I170
s(g107
g48
tp974
I6
s(g87
g36
tp975
I5
s(g116
g48
tp976
I3933
s(g30
g12
tp977
I253
s(g24
g77
tp978
I2
s(g9
g68
tp979
I2858
s(g1
S'at'
p980
tp981
I1959
s(g1
S'me'
p982
tp983
I1597
s(g1
S'eg'
p984
tp985
I58
s(g30
g71
tp986
I40
s(g26
g12
tp987
I61
s(g51
g9
tp988
I1702
s(g9
g107
tp989
I1250
s(g1
S'wo'
p990
tp991
I1653
s(g48
g68
tp992
I28515
s(g1
S'lo'
p993
tp994
I2206
s(g23
g12
tp995
I236
s(g26
g68
tp996
I26365
s(g73
g71
tp997
I1303
s(g118
g68
tp998
I6553
s(g35
g26
tp999
I872
s(g1
S'ae'
p1000
tp1001
I67
s(g51
g48
tp1002
I8
s(g1
S'vb'
p1003
tp1004
I3
s(g31
g36
tp1005
I711
s(g1
S'rj'
p1006
tp1007
I1
s(g12
g14
tp1008
I2015
s(g118
g137
tp1009
I1
s(g9
g118
tp1010
I2707
s(g1
S'oo'
p1011
tp1012
I23
s(g1
S'ze'
p1013
tp1014
I13
s(g48
g77
tp1015
I239
s(g48
g118
tp1016
I640
s(g116
g12
tp1017
I690
s(g12
g11
tp1018
I1
s(g87
g9
tp1019
I5
s(g24
g73
tp1020
I3769
s(g8
g107
tp1021
I10
s(g14
g71
tp1022
I1305
s(g44
g24
tp1023
I46
s(g44
g26
tp1024
I643
s(g15
g118
tp1025
I129
s(g1
S'oi'
p1026
tp1027
I34
s(g1
S'as'
p1028
tp1029
I2294
s(g1
S'ml'
p1030
tp1031
I21
s(g51
g36
tp1032
I34
s(g1
S'dc'
p1033
tp1034
I4
s(g1
S'np'
p1035
tp1036
I5
s(g1
S'mr'
p1037
tp1038
I7
s(g30
g26
tp1039
I2559
s(g77
g24
tp1040
I83
s(g118
g15
tp1041
I36
s(g1
S'se'
p1042
tp1043
I2160
s(g77
g30
tp1044
I287
s(g1
S'jc'
p1045
tp1046
I1
s(g15
g107
tp1047
I79
s(g14
g73
tp1048
I2317
s(g1
S'ir'
p1049
tp1050
I69
s(g48
g73
tp1051
I4981
s(g1
S'wt'
p1052
tp1053
I1
s(g1
S'rs'
p1054
tp1055
I3
s(g48
g137
tp1056
I14
s(g116
g11
tp1057
I91
s(g87
g24
tp1058
I1
s(g1
S'ih'
p1059
tp1060
I1
s(g24
g23
tp1061
I268
s(g9
g14
tp1062
I895
s(g1
S'pf'
p1063
tp1064
I5
s(g1
S'mn'
p1065
tp1066
I2
s(g116
g14
tp1067
I4492
s(g1
S'bw'
p1068
tp1069
I2
s(g1
S'be'
p1070
tp1071
I4409
s(g71
g15
tp1072
I599
s(g44
g12
tp1073
I95
s(g1
S'mx'
p1074
tp1075
I1
s(g1
S'ah'
p1076
tp1077
I70
s(g35
g107
tp1078
I21
s(g12
g73
tp1079
I2194
s(g77
g9
tp1080
I524
s(g118
g12
tp1081
I809
s(g9
g15
tp1082
I32
s(g1
S'fi'
p1083
tp1084
I1372
s(g14
g77
tp1085
I2284
s(g1
S'oz'
p1086
tp1087
I45
s(g1
S'oa'
p1088
tp1089
I11
s(g1
S'ni'
p1090
tp1091
I294
s(g1
S'my'
p1092
tp1093
I606
s(g71
g14
tp1094
I1330
s(g12
g51
tp1095
I824
s(g24
g44
tp1096
I21
s(g1
S'cb'
p1097
tp1098
I4
s(g36
g116
tp1099
I1516
s(g8
g14
tp1100
I1348
s(g1
S'lc'
p1101
tp1102
I1
s(g1
S'cu'
p1103
tp1104
I415
s(g1
S'pe'
p1105
tp1106
I1000
s(g107
g68
tp1107
I4129
s(g8
g24
tp1108
I3
s(g116
g35
tp1109
I1396
s(g1
S'c'
p1110
tp1111
I66
s(g1
S'ig'
p1112
tp1113
I35
s(g1
S'ho'
p1114
tp1115
I1662
s(g23
g9
tp1116
I1048
s(g30
g107
tp1117
I25
s(g1
S'gp'
p1118
tp1119
I1
s(g35
g48
tp1120
I2
s(g1
S'po'
p1121
tp1122
I1193
s(g36
g36
tp1123
I423
s(g1
S'ge'
p1124
tp1125
I802
s(g1
S'ot'
p1126
tp1127
I423
s(g1
S'un'
p1128
tp1129
I889
s(g77
g35
tp1130
I2
s(g118
g48
tp1131
I2468
s(g107
g23
tp1132
I26
s(g77
g36
tp1133
I13
s(g1
S'qu'
p1134
tp1135
I644
s(g1
S'tf'
p1136
tp1137
I2
s(g73
g44
tp1138
I3004
s(g1
S'bp'
p1139
tp1140
I4
s(g44
g118
tp1141
I147
s(g1
S'aa'
p1142
tp1143
I8
s(g30
g30
tp1144
I752
s(g87
g26
tp1145
I21
s(g36
g8
tp1146
I17
s(g14
g87
tp1147
I1283
s(g30
g11
tp1148
I35
s(g1
S'il'
p1149
tp1150
I53
s(g9
g9
tp1151
I30
s(g1
S'bb'
p1152
tp1153
I6
s(g1
S'dt'
p1154
tp1155
I2
s(g116
g107
tp1156
I2358
s(g1
S'sw'
p1157
tp1158
I303
s(g23
g30
tp1159
I1356
s(g73
g11
tp1160
I1239
s(g137
g31
tp1161
I406
s(g1
S'dm'
p1162
tp1163
I4
s(g12
g24
tp1164
I16
s(g1
S'ex'
p1165
tp1166
I884
s(g51
g118
tp1167
I1356
s(g36
g48
tp1168
I19
s(g31
g137
tp1169
I107
s(g1
S'fe'
p1170
tp1171
I923
s(g12
g116
tp1172
I1248
s(g77
g14
tp1173
I1299
s(g118
g36
tp1174
I59
s(g9
g51
tp1175
I4588
s(g1
S'rg'
p1176
tp1177
I1
s(g46
g26
tp1178
I1
s(g1
S'ph'
p1179
tp1180
I177
s(g48
g31
tp1181
I3152
s(g1
S'tw'
p1182
tp1183
I566
s(g12
g71
tp1184
I2
s(g36
g73
tp1185
I5266
s(g8
g73
tp1186
I4087
s(g1
S'rc'
p1187
tp1188
I6
s(g14
g11
tp1189
I196
s(g1
S'dr'
p1190
tp1191
I762
s(g116
g49
tp1192
I19
s(g1
S'by'
p1193
tp1194
I838
s(g107
g31
tp1195
I2773
s(g23
g77
tp1196
I755
s(g8
g26
tp1197
I327
s(g26
g77
tp1198
I38
s(g116
g31
tp1199
I37
s(g35
g23
tp1200
I73
s(g1
S'an'
p1201
tp1202
I9060
s(g1
S'im'
p1203
tp1204
I370
s(g1
S'gl'
p1205
tp1206
I431
s(g1
S'av'
p1207
tp1208
I75
s(g1
S'mg'
p1209
tp1210
I9
s(g1
S'b'
p1211
tp1212
I41
s(g36
g12
tp1213
I5
s(g31
g15
tp1214
I404
s(g48
g87
tp1215
I102
s(g1
S'pl'
p1216
tp1217
I653
s(g1
S'wm'
p1218
tp1219
I1
s(g77
g31
tp1220
I1971
s(g1
S'lm'
p1221
tp1222
I1
s(g1
S'nu'
p1223
tp1224
I172
s(g77
g12
tp1225
I3
s(g14
g107
tp1226
I2568
s(g1
S'sh'
p1227
tp1228
I3280
s(g48
g107
tp1229
I154
s(g73
g73
tp1230
I4139
s(g1
S'ww'
p1231
tp1232
I2
s(g87
g87
tp1233
I6
s(g116
g71
tp1234
I1669
s(g1
S'ha'
p1235
tp1236
I5870
s(g8
g118
tp1237
I1149
s(g24
g26
tp1238
I270
s(g1
S'rl'
p1239
tp1240
I1
s(g9
g77
tp1241
I1716
s(g71
g68
tp1242
I2453
s(g1
S'wu'
p1243
tp1244
I2
s(g1
S'gw'
p1245
tp1246
I1
s(g9
g49
tp1247
I2
s(g1
S'ua'
p1248
tp1249
I1
s(g1
S'yo'
p1250
tp1251
I3361
s(g116
g116
tp1252
I65
s(g1
S'js'
p1253
tp1254
I1
s(g1
S'bo'
p1255
tp1256
I1062
s(g73
g48
tp1257
I10816
s(g137
g8
tp1258
I1
s(g1
S'ov'
p1259
tp1260
I574
s(g12
g26
tp1261
I43
s(g31
g77
tp1262
I551
s(g9
g12
tp1263
I187
s(g44
g14
tp1264
I538
s(g77
g107
tp1265
I24
s(g8
g68
tp1266
I1049
s(g9
g71
tp1267
I1637
s(g14
g31
tp1268
I3299
s(g35
g68
tp1269
I3593
s(g26
g36
tp1270
I77
s(g1
S'fb'
p1271
tp1272
I1
s(g49
g24
tp1273
I1
s(g116
g23
tp1274
I10350
s(g12
g118
tp1275
I836
s(g1
S'cd'
p1276
tp1277
I1
s(g1
S'nr'
p1278
tp1279
I3
s(g107
g44
tp1280
I679
s(g36
g14
tp1281
I884
s(g8
g116
tp1282
I3860
s(g1
S'dx'
p1283
tp1284
I1
s(g1
S'sc'
p1285
tp1286
I727
s(g1
S'ci'
p1287
tp1288
I153
s(g1
S'je'
p1289
tp1290
I107
s(g44
g9
tp1291
I16
s(g116
g8
tp1292
I3360
s(g1
S'k'
p1293
tp1294
I1
s(g1
S'ru'
p1295
tp1296
I424
s(g1
S'qm'
p1297
tp1298
I1
s(g1
S'sp'
p1299
tp1300
I879
s(g30
g9
tp1301
I496
s(g31
g73
tp1302
I411
s(g35
g118
tp1303
I223
s(g107
g11
tp1304
I2
s(g36
g137
tp1305
I94
s(g1
S'vt'
p1306
tp1307
I3
s(g1
S'pd'
p1308
tp1309
I8
s(g77
g8
tp1310
I1
s(g73
g24
tp1311
I1120
s(g1
S'ka'
p1312
tp1313
I90
s(g44
g116
tp1314
I131
s(g1
S'p'
p1315
tp1316
I13
s(g73
g116
tp1317
I6813
s(g87
g23
tp1318
I7
s(g1
S'tc'
p1319
tp1320
I1
s(g116
g51
tp1321
I11156
s(g30
g87
tp1322
I181
s(g8
g15
tp1323
I4213
s(g24
g24
tp1324
I21
s(g9
g8
tp1325
I1054
s(g1
S'ad'
p1326
tp1327
I406
s(g73
g87
tp1328
I2086
s(g1
S'ox'
p1329
tp1330
I39
s(g116
g73
tp1331
I119
s(g23
g87
tp1332
I303
s(g1
S'em'
p1333
tp1334
I250
s(g1
S'ce'
p1335
tp1336
I292
s(g137
g77
tp1337
I2
s(g35
g8
tp1338
I1
s(g12
g31
tp1339
I3667
s(g51
g51
tp1340
I2082
s(g9
g36
tp1341
I477
s(g36
g118
tp1342
I2016
s(g31
g23
tp1343
I8973
s(g48
g71
tp1344
I4
s(g1
S'vl'
p1345
tp1346
I1
s(g77
g116
tp1347
I1401
s(g24
g15
tp1348
I3825
s(g71
g23
tp1349
I2098
s(g71
g24
tp1350
I20
s(g44
g8
tp1351
I50
s(g1
S'pm'
p1352
tp1353
I4
s(g116
g87
tp1354
I1911
s(g24
g9
tp1355
I12
s(g36
g107
tp1356
I7
s(g1
S'cp'
p1357
tp1358
I8
s(g1
S'e'
p1359
tp1360
I27
s(g107
g77
tp1361
I10
s(g23
g31
tp1362
I6822
s(g1
S'kr'
p1363
tp1364
I66
s(g116
g77
tp1365
I1910
s(g30
g77
tp1366
I11255
s(g1
S'ry'
p1367
tp1368
I12
s(g1
S'ac'
p1369
tp1370
I541
s(g1
S'qi'
p1371
tp1372
I1
s(g14
g49
tp1373
I77
s(g46
g36
tp1374
I19
s(g51
g23
tp1375
I2867
s(g1
S'os'
p1376
tp1377
I10
s(g36
g30
tp1378
I67
s(g31
g71
tp1379
I1907
s(g26
g24
tp1380
I377
s(g1
S'f'
p1381
tp1382
I6
s(g77
g77
tp1383
I370
s(g1
S'dj'
p1384
tp1385
I3
s(g73
g26
tp1386
I7536
s(g1
S'su'
p1387
tp1388
I1197
s(g1
S'wh'
p1389
tp1390
I3740
s(g1
S'fu'
p1391
tp1392
I381
s(g1
S'xe'
p1393
tp1394
I5
s(g73
g107
tp1395
I2785
s(g44
g30
tp1396
I64
s(g1
S'so'
p1397
tp1398
I2338
s(g8
g48
tp1399
I6
s(g1
S'wr'
p1400
tp1401
I255
s(g9
g31
tp1402
I53
s(g36
g31
tp1403
I2020
s(g1
S'va'
p1404
tp1405
I344
s(g1
S'hf'
p1406
tp1407
I3
s(g23
g15
tp1408
I117
s(g73
g23
tp1409
I17429
s(g9
g44
tp1410
I50
s(g1
S'pv'
p1411
tp1412
I1
s(g116
g44
tp1413
I2133
s(g1
S'ug'
p1414
tp1415
I32
s(g73
g118
tp1416
I4534
s(g36
g15
tp1417
I2
s(g14
g26
tp1418
I8050
s(g44
g87
tp1419
I1
s(g31
g31
tp1420
I3757
s(g46
g73
tp1421
I420
s(g9
g30
tp1422
I3270
s(g87
g118
tp1423
I2
s(g1
S'wi'
p1424
tp1425
I3082
s(g1
S'bs'
p1426
tp1427
I2
s(g77
g73
tp1428
I3079
s(g1
S'eh'
p1429
tp1430
I12
s(g9
g11
tp1431
I15
s(g1
S'fl'
p1432
tp1433
I701
s(g24
g118
tp1434
I270
s(g1
S'oj'
p1435
tp1436
I1
s(g51
g8
tp1437
I606
s(g1
S'ap'
p1438
tp1439
I453
s(g1
S'mi'
p1440
tp1441
I1017
s(g1
S'w'
p1442
tp1443
I2
s(g12
g48
tp1444
I3
s(g1
S'fg'
p1445
tp1446
I1
s(g23
g116
tp1447
I4183
s(g8
g44
tp1448
I209
s(g30
g68
tp1449
I18345
s(g1
S'eq'
p1450
tp1451
I63
s(g87
g68
tp1452
I58
s(g1
S'cl'
p1453
tp1454
I793
s(g1
S'tp'
p1455
tp1456
I1
s(g1
S'jg'
p1457
tp1458
I2
s(g1
S'lu'
p1459
tp1460
I155
s(g71
g44
tp1461
I146
s(g1
S'rn'
p1462
tp1463
I3
s(g44
g11
tp1464
I2
s(g31
g107
tp1465
I4380
s(g107
g71
tp1466
I1302
s(g1
S'gu'
p1467
tp1468
I224
s(g26
g26
tp1469
I2782
s(g11
g8
tp1470
I162
s(g1
S'vu'
p1471
tp1472
I5
s(g1
S'yi'
p1473
tp1474
I4
s(g107
g36
tp1475
I934
s(g1
S'sl'
p1476
tp1477
I674
s(g30
g118
tp1478
I695
s(g1
S'tv'
p1479
tp1480
I19
s(g51
g116
tp1481
I3541
s(g73
g14
tp1482
I1359
s(g9
g35
tp1483
I23
s(g1
S'th'
p1484
tp1485
I25333
s(g14
g12
tp1486
I1446
s(g1
S'dd'
p1487
tp1488
I1
s(g49
g71
tp1489
I1
s(g1
S'tr'
p1490
tp1491
I1098
s(g1
S'ls'
p1492
tp1493
I3
s(g73
g15
tp1494
I319
s(g12
g77
tp1495
I2
s(g1
S'na'
p1496
tp1497
I393
s(g48
g26
tp1498
I1233
s(g1
S'sa'
p1499
tp1500
I3189
s(g87
g15
tp1501
I3
s(g31
g46
tp1502
I98
s(g48
g11
tp1503
I2
s(g1
S'rw'
p1504
tp1505
I1
s(g15
g23
tp1506
I1021
s(g71
g31
tp1507
I2005
s(g71
g116
tp1508
I1857
s.