ccollections
defaultdict
p0
(c__builtin__
int
p1
tp2
Rp3
(S'c'
p4
S'u'
p5
tp6
I875
s(S'x'
p7
S'f'
p8
tp9
I33
s(S'i'
p10
S'h'
p11
tp12
I8
s(S'^'
p13
g5
tp14
I2754
s(S'r'
p15
S'w'
p16
tp17
I145
s(g11
S's'
p18
tp19
I86
s(S'n'
p20
S'o'
p21
tp22
I4043
s(S'k'
p23
S'b'
p24
tp25
I3
s(g10
S'y'
p26
tp27
I4
s(S'z'
p28
g28
tp29
I74
s(S'd'
p30
S'q'
p31
tp32
I2
s(S't'
p33
g28
tp34
I97
s(g21
g7
tp35
I119
s(g18
g21
tp36
I3594
s(g13
g20
tp37
I4920
s(g4
g20
tp38
I23
s(g8
S'$'
p39
tp40
I8271
s(g5
g16
tp41
I22
s(g15
S'p'
p42
tp43
I284
s(S'e'
p44
g28
tp45
I148
s(g23
g26
tp46
I137
s(g42
g24
tp47
I16
s(S'g'
p48
g42
tp49
I3
s(g8
g4
tp50
I21
s(g21
g16
tp51
I4111
s(g13
S'm'
p52
tp53
I9059
s(g5
S'v'
p54
tp55
I13
s(g54
g30
tp56
I3
s(g16
g30
tp57
I107
s(g8
g15
tp58
I1799
s(g33
g23
tp59
I3
s(g52
g10
tp60
I2434
s(g15
g10
tp61
I5926
s(g4
g31
tp62
I13
s(g23
g42
tp63
I12
s(g26
g30
tp64
I42
s(g11
g16
tp65
I23
s(S'a'
p66
g18
tp67
I8678
s(g28
S'l'
p68
tp69
I37
s(g21
g5
tp70
I11279
s(g52
g11
tp71
I70
s(g18
g23
tp72
I598
s(g44
g48
tp73
I701
s(g20
g33
tp74
I6192
s(g4
S'j'
p75
tp76
I1
s(g33
g10
tp77
I6896
s(g26
g42
tp78
I129
s(g15
g24
tp79
I145
s(g28
g20
tp80
I2
s(g5
g18
tp81
I3663
s(g23
g16
tp82
I54
s(g10
g20
tp83
I22176
s(g44
g8
tp84
I947
s(g66
g5
tp85
I942
s(g48
g33
tp86
I31
s(g5
g15
tp87
I4004
s(g42
g48
tp88
I3
s(g8
g20
tp89
I10
s(g33
g8
tp90
I58
s(g66
g16
tp91
I800
s(g20
g16
tp92
I60
s(g30
g8
tp93
I42
s(g18
g26
tp94
I278
s(g10
g66
tp95
I1215
s(g30
g26
tp96
I521
s(g30
g20
tp97
I76
s(g7
g21
tp98
I15
s(g44
g4
tp99
I2454
s(g4
g8
tp100
I3
s(g20
g30
tp101
I11980
s(g21
g39
tp102
I11710
s(g4
g33
tp103
I1892
s(g16
g39
tp104
I2756
s(g42
g33
tp105
I616
s(g26
g24
tp106
I75
s(g15
g7
tp107
I24
s(g13
g11
tp108
I18573
s(g44
g24
tp109
I212
s(g7
g39
tp110
I260
s(g28
g10
tp111
I161
s(g23
g66
tp112
I265
s(g24
g39
tp113
I208
s(g48
g11
tp114
I3078
s(g10
g4
tp115
I5056
s(g20
g11
tp116
I75
s(g42
g5
tp117
I939
s(g33
g18
tp118
I2168
s(g13
g48
tp119
I5534
s(g52
g66
tp120
I4757
s(g15
g31
tp121
I9
s(g20
g66
tp122
I2407
s(g28
g30
tp123
I1
s(g52
g54
tp124
I1
s(g18
g5
tp125
I1587
s(g18
g4
tp126
I1103
s(g20
g24
tp127
I76
s(g44
g21
tp128
I746
s(g10
g15
tp129
I2555
s(g26
g26
tp130
I21
s(g4
g24
tp131
I10
s(g75
g26
tp132
I3
s(g15
g75
tp133
I2
s(g4
g42
tp134
I13
s(g44
g20
tp135
I9601
s(g21
g8
tp136
I7581
s(g48
g68
tp137
I829
s(g30
g4
tp138
I79
s(g5
g28
tp139
I53
s(g30
g11
tp140
I13
s(g68
g26
tp141
I4172
s(g16
g42
tp142
I6
s(g11
g24
tp143
I60
s(g10
g33
tp144
I9152
s(g8
g8
tp145
I1456
s(g52
g18
tp146
I750
s(g15
g4
tp147
I634
s(g48
g39
tp148
I10125
s(g75
g8
tp149
I1
s(g33
g20
tp150
I73
s(g21
g30
tp151
I1404
s(g11
g4
tp152
I6
s(g13
g15
tp153
I6630
s(g31
g24
tp154
I1
s(g18
g31
tp155
I253
s(g7
g66
tp156
I174
s(g10
g10
tp157
I31
s(g30
g66
tp158
I1359
s(g7
g16
tp159
I3
s(g68
g16
tp160
I179
s(g44
g23
tp161
I185
s(g42
g68
tp162
I2322
s(g26
g75
tp163
I14
s(g21
g4
tp164
I1214
s(g44
g75
tp165
I26
s(g28
g66
tp166
I181
s(g23
g10
tp167
I1571
s(g26
g39
tp168
I16645
s(g10
g23
tp169
I994
s(g15
g39
tp170
I14398
s(g54
g33
tp171
I3
s(g11
g42
tp172
I2
s(g42
g52
tp173
I55
s(g31
g5
tp174
I1229
s(g68
g5
tp175
I896
s(g16
g33
tp176
I196
s(g11
g8
tp177
I25
s(g8
g24
tp178
I2
s(g13
g21
tp179
I15093
s(g75
g11
tp180
I1
s(g15
g26
tp181
I4069
s(g11
g31
tp182
I2
s(g20
g10
tp183
I2448
s(g21
g66
tp184
I624
s(g18
g20
tp185
I337
s(g52
g20
tp186
I69
s(g18
g52
tp187
I558
s(g7
g44
tp188
I113
s(g20
g75
tp189
I56
s(g68
g18
tp190
I848
s(g10
g28
tp191
I485
s(g4
g28
tp192
I2
s(g33
g26
tp193
I997
s(g15
g15
tp194
I2714
s(g23
g48
tp195
I8
s(g66
g28
tp196
I158
s(g33
g11
tp197
I31015
s(g21
g20
tp198
I11523
s(g30
g33
tp199
I14
s(g54
g52
tp200
I1
s(g18
g33
tp201
I8459
s(g48
g30
tp202
I5
s(g42
g18
tp203
I630
s(g30
g23
tp204
I64
s(g54
g42
tp205
I2
s(g11
g33
tp206
I1929
s(g31
g10
tp207
I1
s(g44
g39
tp208
I48436
s(g13
g26
tp209
I4035
s(g52
g23
tp210
I2
s(g15
g23
tp211
I886
s(g7
g11
tp212
I23
s(g75
g68
tp213
I1
s(g11
g5
tp214
I986
s(g13
g31
tp215
I647
s(g33
g54
tp216
I39
s(g21
g68
tp217
I2537
s(g30
g15
tp218
I1069
s(g11
g23
tp219
I1
s(g13
g28
tp220
I91
s(g54
g21
tp221
I685
s(g16
g75
tp222
I5
s(g18
g10
tp223
I3355
s(g7
g10
tp224
I193
s(g30
g10
tp225
I3273
s(g31
g39
tp226
I7
s(g75
g39
tp227
I5
s(g68
g21
tp228
I4305
s(g26
g23
tp229
I1
s(g15
g30
tp230
I2122
s(g4
g54
tp231
I6
s(g75
g5
tp232
I884
s(g23
g5
tp233
I21
s(g42
g54
tp234
I3
s(g42
g30
tp235
I15
s(g26
g15
tp236
I107
s(g21
g23
tp237
I1561
s(g28
g26
tp238
I44
s(g54
g10
tp239
I1368
s(g18
g42
tp240
I1410
s(g33
g48
tp241
I14
s(g13
g10
tp242
I12931
s(g4
g21
tp243
I4806
s(g42
g44
tp244
I3718
s(g31
g52
tp245
I1
s(g68
g52
tp246
I318
s(g52
g5
tp247
I1116
s(g11
g20
tp248
I214
s(g7
g68
tp249
I2
s(g48
g28
tp250
I3
s(g11
g26
tp251
I507
s(g26
g33
tp252
I347
s(g21
g10
tp253
I1179
s(g23
g11
tp254
I232
s(g52
g33
tp255
I16
s(g26
g11
tp256
I17
s(g11
g21
tp257
I4971
s(g52
g8
tp258
I96
s(g16
g20
tp259
I866
s(g18
g44
tp260
I6515
s(g26
g44
tp261
I1081
s(g33
g44
tp262
I8161
s(g20
g15
tp263
I104
s(g68
g23
tp264
I400
s(g10
g24
tp265
I542
s(g13
g33
tp266
I38132
s(g4
g15
tp267
I1444
s(g75
g10
tp268
I19
s(g20
g31
tp269
I33
s(g8
g26
tp270
I44
s(g15
g28
tp271
I19
s(g68
g28
tp272
I1
s(g28
g23
tp273
I7
s(g23
g21
tp274
I56
s(g30
g16
tp275
I57
s(g33
g42
tp276
I26
s(g21
g54
tp277
I1379
s(g54
g44
tp278
I6393
s(g18
g68
tp279
I1179
s(g42
g23
tp280
I12
s(g26
g48
tp281
I6
s(g4
g23
tp282
I2871
s(g68
g10
tp283
I5636
s(g10
g30
tp284
I4681
s(g52
g4
tp285
I144
s(g15
g18
tp286
I2761
s(g7
g42
tp287
I363
s(g20
g4
tp288
I2103
s(g23
g8
tp289
I19
s(g68
g7
tp290
I4
s(g10
g5
tp291
I121
s(g30
g5
tp292
I775
s(g13
g68
tp293
I7288
s(g54
g20
tp294
I1
s(g21
g33
tp295
I3782
s(g30
g28
tp296
I4
s(g66
g11
tp297
I187
s(g13
g24
tp298
I11522
s(g54
g48
tp299
I1
s(g16
g23
tp300
I41
s(g16
g24
tp301
I22
s(g18
g66
tp302
I3595
s(g7
g31
tp303
I3
s(g68
g48
tp304
I38
s(g15
g68
tp305
I697
s(g24
g42
tp306
I4
s(g42
g20
tp307
I32
s(g8
g5
tp308
I816
s(g68
g54
tp309
I224
s(g28
g21
tp310
I53
s(g10
g16
tp311
I4
s(g26
g28
tp312
I10
s(g21
g18
tp313
I1998
s(g18
g28
tp314
I1
s(g66
g75
tp315
I48
s(g54
g66
tp316
I845
s(g16
g10
tp317
I3656
s(g18
g11
tp318
I4403
s(g33
g21
tp319
I9886
s(g4
g48
tp320
I81
s(g13
g18
tp321
I20276
s(g68
g44
tp322
I8556
s(g52
g52
tp323
I566
s(g15
g44
tp324
I12800
s(g23
g33
tp325
I21
s(g24
g15
tp326
I1238
s(g7
g33
tp327
I376
s(g68
g33
tp328
I752
s(g48
g15
tp329
I1816
s(g11
g66
tp330
I10997
s(g20
g26
tp331
I1048
s(g21
g31
tp332
I11
s(g52
g68
tp333
I54
s(g66
g68
tp334
I7389
s(g54
g4
tp335
I4
s(g16
g21
tp336
I2079
s(g24
g18
tp337
I294
s(g16
g8
tp338
I31
s(g7
g5
tp339
I12
s(g26
g52
tp340
I101
s(g33
g52
tp341
I130
s(g5
g44
tp342
I921
s(g20
g28
tp343
I23
s(g68
g4
tp344
I134
s(g10
g75
tp345
I4
s(g28
g39
tp346
I256
s(g24
g33
tp347
I50
s(g75
g66
tp348
I204
s(g66
g39
tp349
I1865
s(g48
g26
tp350
I96
s(g68
g15
tp351
I78
s(g5
g30
tp352
I1116
s(g10
g39
tp353
I204
s(g18
g54
tp354
I4
s(g28
g5
tp355
I12
s(g30
g30
tp356
I864
s(g66
g20
tp357
I16017
s(g16
g52
tp358
I7
s(g18
g30
tp359
I26
s(g24
g5
tp360
I2018
s(g42
g4
tp361
I58
s(g26
g21
tp362
I3544
s(g33
g39
tp363
I24768
s(g4
g4
tp364
I315
s(g11
g30
tp365
I30
s(g68
g66
tp366
I3796
s(g10
g68
tp367
I3462
s(g24
g54
tp368
I29
s(g7
g7
tp369
I1
s(g20
g23
tp370
I914
s(g23
g20
tp371
I808
s(g68
g42
tp372
I231
s(g48
g54
tp373
I1
s(g11
g44
tp374
I31885
s(g13
g7
tp375
I8
s(g44
g5
tp376
I144
s(g30
g24
tp377
I38
s(g13
g75
tp378
I1502
s(g16
g4
tp379
I6
s(g24
g16
tp380
I4
s(g16
g28
tp381
I1
s(g7
g26
tp382
I7
s(g5
g66
tp383
I604
s(g44
g33
tp384
I3813
s(g75
g18
tp385
I1
s(g42
g42
tp386
I1323
s(g15
g33
tp387
I2829
s(g24
g7
tp388
I1
s(g75
g44
tp389
I346
s(g23
g44
tp390
I3593
s(g42
g8
tp391
I7
s(g8
g52
tp392
I7
s(g68
g20
tp393
I13
s(g18
g15
tp394
I21
s(g66
g24
tp395
I1782
s(g54
g26
tp396
I45
s(g16
g66
tp397
I5791
s(g24
g26
tp398
I1076
s(g33
g16
tp399
I725
s(g11
g11
tp400
I111
s(g52
g44
tp401
I5946
s(g15
g52
tp402
I1407
s(g20
g44
tp403
I6382
s(g48
g18
tp404
I476
s(g68
g68
tp405
I5838
s(g11
g10
tp406
I8281
s(g21
g26
tp407
I527
s(g44
g31
tp408
I170
s(g52
g30
tp409
I6
s(g54
g24
tp410
I5
s(g66
g30
tp411
I3933
s(g20
g8
tp412
I253
s(g16
g48
tp413
I2
s(g5
g39
tp414
I2857
s(g20
g42
tp415
I40
s(g18
g8
tp416
I61
s(g33
g5
tp417
I1702
s(g5
g52
tp418
I1250
s(g30
g39
tp419
I28502
s(g15
g8
tp420
I236
s(g18
g39
tp421
I26355
s(g44
g42
tp422
I1303
s(g68
g39
tp423
I6547
s(g23
g18
tp424
I872
s(g33
g30
tp425
I8
s(g21
g24
tp426
I711
s(g8
g10
tp427
I2015
s(g68
g75
tp428
I1
s(g5
g68
tp429
I2707
s(g30
g48
tp430
I239
s(g30
g68
tp431
I640
s(g66
g8
tp432
I690
s(g8
g7
tp433
I1
s(g54
g5
tp434
I5
s(g16
g44
tp435
I3769
s(g4
g52
tp436
I10
s(g10
g42
tp437
I1305
s(g26
g16
tp438
I46
s(g26
g18
tp439
I643
s(g11
g68
tp440
I129
s(g33
g24
tp441
I34
s(g13
g54
tp442
I1876
s(g20
g18
tp443
I2559
s(g48
g16
tp444
I83
s(g68
g11
tp445
I36
s(g48
g20
tp446
I287
s(g11
g52
tp447
I79
s(g10
g44
tp448
I2317
s(g30
g44
tp449
I4981
s(g30
g75
tp450
I14
s(g66
g7
tp451
I91
s(g54
g16
tp452
I1
s(g16
g15
tp453
I268
s(g5
g10
tp454
I895
s(g66
g10
tp455
I4492
s(g42
g11
tp456
I599
s(g26
g8
tp457
I95
s(g13
g66
tp458
I22126
s(g23
g52
tp459
I21
s(g8
g44
tp460
I2194
s(g48
g5
tp461
I524
s(g68
g8
tp462
I809
s(g5
g11
tp463
I32
s(g10
g48
tp464
I2284
s(g42
g10
tp465
I1330
s(g8
g33
tp466
I824
s(g16
g26
tp467
I21
s(g24
g66
tp468
I1516
s(g4
g10
tp469
I1348
s(g52
g39
tp470
I4118
s(g4
g16
tp471
I3
s(g66
g23
tp472
I1396
s(g13
g4
tp473
I9967
s(g15
g5
tp474
I1048
s(g20
g52
tp475
I25
s(g23
g30
tp476
I2
s(g24
g24
tp477
I423
s(g48
g23
tp478
I2
s(g68
g30
tp479
I2468
s(g52
g15
tp480
I26
s(g48
g24
tp481
I13
s(g44
g26
tp482
I3004
s(g26
g68
tp483
I147
s(g20
g20
tp484
I752
s(g54
g18
tp485
I21
s(g24
g4
tp486
I17
s(g10
g54
tp487
I1283
s(g20
g7
tp488
I35
s(g5
g5
tp489
I30
s(g66
g52
tp490
I2358
s(g15
g20
tp491
I1356
s(g44
g7
tp492
I1239
s(g75
g21
tp493
I406
s(g8
g16
tp494
I16
s(g13
g42
tp495
I7266
s(g33
g68
tp496
I1356
s(g24
g30
tp497
I19
s(g21
g75
tp498
I107
s(g8
g66
tp499
I1248
s(g48
g10
tp500
I1299
s(g68
g24
tp501
I59
s(g5
g33
tp502
I4588
s(g28
g18
tp503
I1
s(g30
g21
tp504
I3152
s(g8
g42
tp505
I2
s(g24
g44
tp506
I5266
s(g4
g44
tp507
I4087
s(g10
g7
tp508
I196
s(g66
g31
tp509
I19
s(g13
g30
tp510
I7616
s(g52
g21
tp511
I2773
s(g15
g48
tp512
I755
s(g4
g18
tp513
I327
s(g18
g48
tp514
I38
s(g66
g21
tp515
I37
s(g23
g15
tp516
I73
s(g11
g39
tp517
I6011
s(g24
g8
tp518
I5
s(g21
g11
tp519
I404
s(g30
g54
tp520
I102
s(g48
g21
tp521
I1971
s(g48
g8
tp522
I3
s(g10
g52
tp523
I2568
s(g30
g52
tp524
I154
s(g44
g44
tp525
I4139
s(g54
g54
tp526
I6
s(g66
g42
tp527
I1669
s(g4
g68
tp528
I1149
s(g16
g18
tp529
I270
s(g5
g48
tp530
I1716
s(g42
g39
tp531
I2440
s(g5
g31
tp532
I2
s(g66
g66
tp533
I65
s(g44
g30
tp534
I10816
s(g75
g4
tp535
I1
s(g8
g18
tp536
I43
s(g21
g48
tp537
I551
s(g5
g8
tp538
I187
s(g26
g10
tp539
I538
s(g48
g52
tp540
I24
s(g4
g39
tp541
I983
s(g5
g42
tp542
I1637
s(g10
g21
tp543
I3299
s(g23
g39
tp544
I3592
s(g18
g24
tp545
I77
s(g31
g16
tp546
I1
s(g66
g15
tp547
I10350
s(g8
g68
tp548
I836
s(g52
g26
tp549
I679
s(g24
g10
tp550
I884
s(g4
g66
tp551
I3860
s(g26
g5
tp552
I16
s(g66
g4
tp553
I3360
s(g13
g23
tp554
I1623
s(g20
g5
tp555
I496
s(g21
g44
tp556
I411
s(g23
g68
tp557
I223
s(g52
g7
tp558
I2
s(g24
g75
tp559
I94
s(g48
g4
tp560
I1
s(g44
g16
tp561
I1120
s(g26
g66
tp562
I131
s(g44
g66
tp563
I6813
s(g54
g15
tp564
I7
s(g66
g33
tp565
I11156
s(g20
g54
tp566
I181
s(g4
g11
tp567
I4213
s(g16
g16
tp568
I21
s(g5
g4
tp569
I1054
s(g44
g54
tp570
I2086
s(g66
g44
tp571
I119
s(g15
g54
tp572
I303
s(g75
g48
tp573
I2
s(g23
g4
tp574
I1
s(g8
g21
tp575
I3667
s(g33
g33
tp576
I2082
s(g5
g24
tp577
I477
s(g24
g68
tp578
I2016
s(g21
g15
tp579
I8973
s(g30
g42
tp580
I4
s(g48
g66
tp581
I1401
s(g16
g11
tp582
I3825
s(g42
g15
tp583
I2098
s(g42
g16
tp584
I20
s(g26
g4
tp585
I50
s(g66
g54
tp586
I1911
s(g16
g5
tp587
I12
s(g24
g52
tp588
I7
s(g13
g44
tp589
I4873
s(g52
g48
tp590
I10
s(g15
g21
tp591
I6822
s(g66
g48
tp592
I1910
s(g20
g48
tp593
I11255
s(g10
g31
tp594
I77
s(g28
g24
tp595
I19
s(g33
g15
tp596
I2867
s(g24
g20
tp597
I67
s(g21
g42
tp598
I1907
s(g18
g16
tp599
I377
s(g13
g8
tp600
I9193
s(g48
g48
tp601
I370
s(g44
g18
tp602
I7536
s(g44
g52
tp603
I2785
s(g26
g20
tp604
I64
s(g4
g30
tp605
I6
s(g5
g21
tp606
I53
s(g24
g21
tp607
I2020
s(g15
g11
tp608
I117
s(g44
g15
tp609
I17429
s(g5
g26
tp610
I50
s(g66
g26
tp611
I2133
s(g44
g68
tp612
I4534
s(g24
g11
tp613
I2
s(g10
g18
tp614
I8050
s(g26
g54
tp615
I1
s(g21
g21
tp616
I3757
s(g28
g44
tp617
I420
s(g5
g20
tp618
I3270
s(g54
g68
tp619
I2
s(g48
g44
tp620
I3079
s(g5
g7
tp621
I15
s(g16
g68
tp622
I270
s(g33
g4
tp623
I606
s(g13
g16
tp624
I16153
s(g8
g30
tp625
I3
s(g15
g66
tp626
I4183
s(g4
g26
tp627
I209
s(g20
g39
tp628
I18322
s(g54
g39
tp629
I47
s(g42
g26
tp630
I146
s(g26
g7
tp631
I2
s(g21
g52
tp632
I4380
s(g52
g42
tp633
I1302
s(g18
g18
tp634
I2782
s(g7
g4
tp635
I162
s(g52
g24
tp636
I934
s(g20
g68
tp637
I695
s(g33
g66
tp638
I3541
s(g44
g10
tp639
I1359
s(g5
g23
tp640
I23
s(g10
g8
tp641
I1446
s(g31
g42
tp642
I1
s(g44
g11
tp643
I319
s(g8
g48
tp644
I2
s(g30
g18
tp645
I1233
s(g54
g11
tp646
I3
s(g21
g28
tp647
I98
s(g30
g7
tp648
I2
s(g11
g15
tp649
I1021
s(g42
g21
tp650
I2005
s(g42
g66
tp651
I1857
s.