ccollections
defaultdict
p0
(c__builtin__
int
p1
tp2
Rp3
(S'c'
p4
S'u'
p5
tp6
I1070
s(S'x'
p7
S'f'
p8
tp9
I33
s(S'i'
p10
S'h'
p11
tp12
I11
s(S'^'
p13
g5
tp14
I3381
s(S'r'
p15
S'w'
p16
tp17
I166
s(g11
S's'
p18
tp19
I111
s(S'n'
p20
S'o'
p21
tp22
I5150
s(S'k'
p23
S'b'
p24
tp25
I11
s(g10
S'y'
p26
tp27
I5
s(S'z'
p28
g28
tp29
I91
s(S'd'
p30
S'q'
p31
tp32
I2
s(S't'
p33
g28
tp34
I116
s(g21
g7
tp35
I136
s(g18
g21
tp36
I4362
s(g7
S'g'
p37
tp38
I2
s(g13
g20
tp39
I6297
s(g4
g20
tp40
I25
s(g8
S'$'
p41
tp42
I10275
s(g5
g16
tp43
I23
s(g15
S'p'
p44
tp45
I381
s(S'e'
p46
g28
tp47
I153
s(g23
g26
tp48
I151
s(g44
g24
tp49
I17
s(g37
g44
tp50
I4
s(g8
g4
tp51
I23
s(g21
g16
tp52
I4740
s(g13
S'm'
p53
tp54
I11235
s(g5
S'v'
p55
tp56
I15
s(g55
g30
tp57
I3
s(g16
g30
tp58
I116
s(g8
g15
tp59
I2133
s(g33
g23
tp60
I6
s(g53
g10
tp61
I2961
s(g15
g10
tp62
I7022
s(g4
g31
tp63
I20
s(S'j'
p64
g64
tp65
I1
s(g23
g44
tp66
I14
s(g26
g30
tp67
I49
s(g11
g16
tp68
I26
s(S'a'
p69
g18
tp70
I10085
s(g28
S'l'
p71
tp72
I42
s(g21
g5
tp73
I13366
s(g53
g11
tp74
I73
s(g18
g23
tp75
I714
s(g46
g37
tp76
I867
s(g20
g33
tp77
I7569
s(g4
g64
tp78
I1
s(g33
g10
tp79
I8646
s(g26
g44
tp80
I165
s(g15
g24
tp81
I200
s(g28
g20
tp82
I5
s(g5
g18
tp83
I4584
s(g23
g16
tp84
I54
s(g10
g20
tp85
I26116
s(g46
g8
tp86
I1191
s(g69
g5
tp87
I1163
s(g31
g11
tp88
I3
s(g37
g33
tp89
I48
s(g5
g15
tp90
I4913
s(g16
g7
tp91
I1
s(g44
g37
tp92
I13
s(g8
g20
tp93
I10
s(g33
g8
tp94
I68
s(g69
g16
tp95
I1127
s(g20
g16
tp96
I73
s(g30
g8
tp97
I43
s(g18
g26
tp98
I434
s(g10
g69
tp99
I1538
s(g30
g26
tp100
I632
s(g30
g20
tp101
I86
s(g7
g21
tp102
I16
s(g46
g4
tp103
I3191
s(g4
g8
tp104
I3
s(g20
g30
tp105
I14069
s(g21
g41
tp106
I14313
s(g4
g33
tp107
I2458
s(g16
g41
tp108
I3359
s(g44
g33
tp109
I788
s(g26
g24
tp110
I102
s(g15
g7
tp111
I25
s(g13
g11
tp112
I20358
s(g46
g24
tp113
I279
s(g7
g41
tp114
I346
s(g28
g10
tp115
I187
s(g23
g69
tp116
I344
s(g24
g41
tp117
I287
s(g31
g71
tp118
I1
s(g37
g11
tp119
I3482
s(g10
g4
tp120
I6155
s(g20
g11
tp121
I94
s(g44
g5
tp122
I1176
s(g33
g18
tp123
I2703
s(g13
g37
tp124
I6916
s(g53
g69
tp125
I5915
s(g15
g31
tp126
I11
s(g7
g15
tp127
I1
s(g20
g69
tp128
I2958
s(g28
g30
tp129
I1
s(g53
g55
tp130
I3
s(g18
g5
tp131
I2061
s(g18
g4
tp132
I1383
s(g20
g24
tp133
I95
s(g46
g21
tp134
I1013
s(g10
g15
tp135
I3076
s(g26
g26
tp136
I22
s(g4
g24
tp137
I14
s(g64
g26
tp138
I3
s(g15
g64
tp139
I3
s(g4
g44
tp140
I16
s(g44
g28
tp141
I1
s(g44
g41
tp142
I2776
s(g46
g20
tp143
I11903
s(g21
g8
tp144
I9323
s(g37
g71
tp145
I931
s(g30
g4
tp146
I91
s(g5
g28
tp147
I61
s(g30
g11
tp148
I24
s(g71
g26
tp149
I4914
s(g16
g44
tp150
I7
s(g11
g24
tp151
I65
s(g10
g33
tp152
I11177
s(g8
g8
tp153
I1654
s(g53
g18
tp154
I906
s(g15
g4
tp155
I817
s(g37
g41
tp156
I11516
s(g7
g55
tp157
I1
s(g64
g8
tp158
I3
s(g33
g20
tp159
I87
s(g21
g30
tp160
I1804
s(g11
g4
tp161
I9
s(g13
g15
tp162
I7833
s(g31
g24
tp163
I1
s(g18
g31
tp164
I262
s(g7
g69
tp165
I195
s(g10
g10
tp166
I68
s(g30
g69
tp167
I1639
s(g7
g16
tp168
I3
s(g71
g16
tp169
I260
s(g46
g23
tp170
I225
s(g28
g53
tp171
I5
s(g44
g71
tp172
I2870
s(g26
g64
tp173
I14
s(g21
g4
tp174
I1432
s(g46
g64
tp175
I31
s(g28
g69
tp176
I230
s(g23
g10
tp177
I1797
s(g18
g7
tp178
I1
s(g26
g41
tp179
I19823
s(g10
g23
tp180
I1140
s(g15
g41
tp181
I17381
s(g55
g33
tp182
I3
s(g11
g44
tp183
I3
s(g44
g53
tp184
I66
s(g31
g5
tp185
I1476
s(g71
g5
tp186
I1114
s(g16
g33
tp187
I200
s(g11
g8
tp188
I29
s(g8
g24
tp189
I2
s(g13
g21
tp190
I18502
s(g64
g11
tp191
I1
s(g15
g26
tp192
I4577
s(g11
g31
tp193
I3
s(g20
g10
tp194
I2999
s(g21
g69
tp195
I791
s(g18
g20
tp196
I369
s(g53
g20
tp197
I81
s(g18
g53
tp198
I679
s(g7
g46
tp199
I134
s(g20
g64
tp200
I79
s(g71
g18
tp201
I1031
s(g10
g28
tp202
I602
s(g4
g28
tp203
I4
s(g33
g26
tp204
I1349
s(g15
g15
tp205
I2968
s(g23
g37
tp206
I11
s(g69
g28
tp207
I185
s(g33
g11
tp208
I37074
s(g21
g20
tp209
I14462
s(g30
g33
tp210
I17
s(g55
g53
tp211
I4
s(g18
g33
tp212
I10618
s(g37
g30
tp213
I7
s(g44
g18
tp214
I747
s(g30
g23
tp215
I65
s(g55
g44
tp216
I2
s(g11
g33
tp217
I2198
s(g31
g10
tp218
I1
s(g46
g41
tp219
I58389
s(g13
g26
tp220
I4926
s(g53
g23
tp221
I3
s(g15
g23
tp222
I1035
s(g7
g11
tp223
I27
s(g64
g71
tp224
I1
s(g11
g5
tp225
I1154
s(g13
g31
tp226
I794
s(g33
g55
tp227
I48
s(g21
g71
tp228
I3163
s(g30
g15
tp229
I1223
s(g11
g23
tp230
I1
s(g13
g28
tp231
I161
s(g55
g21
tp232
I797
s(g16
g64
tp233
I5
s(g18
g10
tp234
I4069
s(g7
g10
tp235
I253
s(g30
g10
tp236
I3910
s(g31
g41
tp237
I12
s(g64
g41
tp238
I25
s(g71
g21
tp239
I4958
s(g26
g23
tp240
I7
s(g15
g30
tp241
I2518
s(g4
g55
tp242
I8
s(g64
g5
tp243
I1016
s(g23
g5
tp244
I30
s(g44
g55
tp245
I3
s(g44
g30
tp246
I22
s(g26
g15
tp247
I126
s(g21
g23
tp248
I1687
s(g28
g26
tp249
I61
s(g55
g10
tp250
I1790
s(g18
g44
tp251
I1744
s(g33
g37
tp252
I16
s(g13
g10
tp253
I16653
s(g4
g21
tp254
I5995
s(g44
g46
tp255
I4574
s(g31
g53
tp256
I1
s(g71
g53
tp257
I357
s(g53
g5
tp258
I1388
s(g11
g20
tp259
I297
s(g7
g71
tp260
I5
s(g37
g28
tp261
I3
s(g11
g26
tp262
I627
s(g26
g33
tp263
I413
s(g21
g10
tp264
I1317
s(g23
g11
tp265
I239
s(g53
g33
tp266
I18
s(g26
g11
tp267
I21
s(g11
g21
tp268
I5885
s(g53
g8
tp269
I104
s(g16
g20
tp270
I1009
s(g18
g46
tp271
I7923
s(g7
g53
tp272
I5
s(g26
g46
tp273
I1241
s(g11
g41
tp274
I7186
s(g33
g46
tp275
I10066
s(g20
g15
tp276
I124
s(g71
g23
tp277
I445
s(g10
g24
tp278
I794
s(g13
g33
tp279
I45631
s(g4
g15
tp280
I1740
s(g64
g10
tp281
I34
s(g20
g31
tp282
I54
s(g8
g26
tp283
I55
s(g15
g28
tp284
I22
s(g71
g28
tp285
I4
s(g28
g23
tp286
I11
s(g23
g21
tp287
I71
s(g30
g16
tp288
I76
s(g33
g44
tp289
I27
s(g21
g55
tp290
I1668
s(g55
g46
tp291
I7985
s(g18
g71
tp292
I1268
s(g44
g23
tp293
I13
s(g26
g37
tp294
I18
s(g4
g23
tp295
I3210
s(g31
g69
tp296
I1
s(g8
g23
tp297
I1
s(g71
g10
tp298
I6838
s(g10
g30
tp299
I5142
s(g53
g4
tp300
I163
s(g15
g18
tp301
I3556
s(g7
g44
tp302
I475
s(g20
g4
tp303
I2796
s(g23
g8
tp304
I24
s(g71
g7
tp305
I5
s(g10
g5
tp306
I143
s(g30
g5
tp307
I937
s(g13
g71
tp308
I8691
s(g55
g20
tp309
I1
s(g21
g33
tp310
I4661
s(g30
g28
tp311
I5
s(g69
g11
tp312
I205
s(g13
g24
tp313
I14132
s(g55
g37
tp314
I1
s(g16
g23
tp315
I46
s(g16
g24
tp316
I25
s(g18
g69
tp317
I4008
s(g7
g31
tp318
I3
s(g71
g37
tp319
I48
s(g15
g71
tp320
I863
s(g24
g44
tp321
I4
s(g64
g53
tp322
I5
s(g44
g20
tp323
I33
s(g8
g5
tp324
I1001
s(g71
g55
tp325
I274
s(g28
g21
tp326
I80
s(g10
g16
tp327
I4
s(g26
g28
tp328
I16
s(g21
g18
tp329
I2570
s(g18
g28
tp330
I3
s(g69
g64
tp331
I65
s(g55
g69
tp332
I1056
s(g16
g10
tp333
I4429
s(g18
g11
tp334
I4845
s(g33
g21
tp335
I11830
s(g4
g37
tp336
I83
s(g13
g18
tp337
I23346
s(g71
g46
tp338
I10197
s(g53
g53
tp339
I714
s(g15
g46
tp340
I15875
s(g23
g33
tp341
I36
s(g24
g15
tp342
I1422
s(g7
g33
tp343
I446
s(g71
g33
tp344
I903
s(g37
g15
tp345
I2167
s(g11
g69
tp346
I12802
s(g20
g26
tp347
I1335
s(g21
g31
tp348
I11
s(g53
g71
tp349
I64
s(g69
g71
tp350
I9185
s(g55
g4
tp351
I4
s(g16
g21
tp352
I2541
s(g24
g18
tp353
I493
s(g16
g8
tp354
I34
s(g7
g5
tp355
I17
s(g26
g53
tp356
I130
s(g33
g53
tp357
I157
s(g5
g46
tp358
I1103
s(g20
g28
tp359
I30
s(g71
g4
tp360
I157
s(g10
g64
tp361
I4
s(g28
g41
tp362
I273
s(g24
g33
tp363
I80
s(g64
g69
tp364
I250
s(g69
g41
tp365
I2295
s(g37
g26
tp366
I172
s(g71
g15
tp367
I89
s(g5
g30
tp368
I1265
s(g10
g41
tp369
I338
s(g18
g55
tp370
I6
s(g33
g7
tp371
I1
s(g28
g5
tp372
I13
s(g30
g30
tp373
I954
s(g69
g20
tp374
I19577
s(g16
g53
tp375
I11
s(g18
g30
tp376
I34
s(g24
g5
tp377
I2430
s(g44
g4
tp378
I157
s(g26
g21
tp379
I4390
s(g33
g41
tp380
I29712
s(g4
g4
tp381
I446
s(g11
g30
tp382
I32
s(g71
g69
tp383
I4903
s(g10
g71
tp384
I4413
s(g24
g55
tp385
I38
s(g7
g7
tp386
I1
s(g20
g23
tp387
I1117
s(g23
g20
tp388
I943
s(g71
g44
tp389
I276
s(g37
g55
tp390
I1
s(g11
g46
tp391
I36721
s(g13
g7
tp392
I105
s(g46
g5
tp393
I175
s(g30
g24
tp394
I44
s(g13
g64
tp395
I1906
s(g16
g4
tp396
I7
s(g24
g16
tp397
I4
s(g16
g28
tp398
I1
s(g7
g26
tp399
I30
s(g5
g69
tp400
I803
s(g46
g33
tp401
I4592
s(g64
g18
tp402
I1
s(g44
g44
tp403
I1550
s(g15
g33
tp404
I3469
s(g24
g7
tp405
I1
s(g64
g46
tp406
I490
s(g23
g46
tp407
I4209
s(g44
g8
tp408
I8
s(g8
g53
tp409
I7
s(g71
g20
tp410
I23
s(g18
g15
tp411
I27
s(g69
g24
tp412
I2147
s(g55
g26
tp413
I50
s(g16
g69
tp414
I6434
s(g24
g26
tp415
I1368
s(g33
g16
tp416
I868
s(g11
g11
tp417
I120
s(g53
g46
tp418
I7514
s(g15
g53
tp419
I1616
s(g20
g46
tp420
I7808
s(g37
g18
tp421
I607
s(g71
g71
tp422
I7331
s(g11
g10
tp423
I9623
s(g21
g26
tp424
I596
s(g46
g31
tp425
I227
s(g53
g30
tp426
I10
s(g55
g24
tp427
I5
s(g69
g30
tp428
I4571
s(g20
g8
tp429
I390
s(g16
g37
tp430
I3
s(g5
g41
tp431
I3472
s(g20
g44
tp432
I53
s(g18
g8
tp433
I89
s(g33
g5
tp434
I2079
s(g5
g53
tp435
I1480
s(g30
g41
tp436
I32514
s(g15
g8
tp437
I296
s(g18
g41
tp438
I32655
s(g46
g44
tp439
I1557
s(g71
g41
tp440
I8410
s(g23
g18
tp441
I982
s(g33
g30
tp442
I10
s(g21
g24
tp443
I907
s(g8
g10
tp444
I2529
s(g71
g64
tp445
I1
s(g5
g71
tp446
I3251
s(g30
g37
tp447
I283
s(g30
g71
tp448
I697
s(g69
g8
tp449
I768
s(g8
g7
tp450
I4
s(g55
g5
tp451
I10
s(g16
g46
tp452
I4459
s(g4
g53
tp453
I18
s(g10
g44
tp454
I1447
s(g26
g16
tp455
I58
s(g53
g16
tp456
I2
s(g26
g18
tp457
I918
s(g11
g71
tp458
I151
s(g33
g24
tp459
I63
s(g13
g55
tp460
I2170
s(g20
g18
tp461
I3267
s(g37
g16
tp462
I86
s(g71
g11
tp463
I38
s(g37
g20
tp464
I371
s(g11
g53
tp465
I97
s(g10
g46
tp466
I2979
s(g30
g46
tp467
I6093
s(g30
g64
tp468
I20
s(g69
g7
tp469
I161
s(g55
g16
tp470
I1
s(g16
g15
tp471
I364
s(g5
g10
tp472
I1074
s(g69
g10
tp473
I4994
s(g20
g41
tp474
I22627
s(g44
g11
tp475
I790
s(g26
g8
tp476
I96
s(g13
g69
tp477
I26614
s(g23
g53
tp478
I24
s(g8
g46
tp479
I2597
s(g37
g5
tp480
I655
s(g71
g8
tp481
I896
s(g5
g11
tp482
I36
s(g10
g37
tp483
I2757
s(g18
g64
tp484
I1
s(g44
g10
tp485
I1547
s(g8
g33
tp486
I930
s(g16
g26
tp487
I31
s(g24
g69
tp488
I1870
s(g4
g10
tp489
I1729
s(g53
g41
tp490
I4983
s(g4
g16
tp491
I8
s(g69
g23
tp492
I1692
s(g13
g4
tp493
I12198
s(g15
g5
tp494
I1288
s(g20
g53
tp495
I64
s(g23
g30
tp496
I4
s(g24
g24
tp497
I587
s(g37
g23
tp498
I3
s(g71
g30
tp499
I2917
s(g53
g15
tp500
I26
s(g37
g24
tp501
I21
s(g46
g26
tp502
I3320
s(g26
g71
tp503
I171
s(g20
g20
tp504
I926
s(g55
g18
tp505
I22
s(g24
g4
tp506
I31
s(g10
g55
tp507
I1729
s(g20
g7
tp508
I36
s(g5
g5
tp509
I36
s(g69
g53
tp510
I3098
s(g15
g20
tp511
I1615
s(g46
g7
tp512
I1556
s(g64
g21
tp513
I574
s(g8
g16
tp514
I18
s(g13
g44
tp515
I9321
s(g33
g71
tp516
I1621
s(g24
g30
tp517
I21
s(g21
g64
tp518
I128
s(g8
g69
tp519
I1522
s(g37
g10
tp520
I1641
s(g71
g24
tp521
I91
s(g5
g33
tp522
I5435
s(g28
g18
tp523
I13
s(g30
g21
tp524
I3814
s(g8
g44
tp525
I2
s(g24
g46
tp526
I6472
s(g4
g46
tp527
I5116
s(g10
g7
tp528
I226
s(g69
g31
tp529
I21
s(g13
g30
tp530
I9174
s(g53
g21
tp531
I3405
s(g15
g37
tp532
I958
s(g4
g18
tp533
I402
s(g18
g37
tp534
I46
s(g69
g21
tp535
I44
s(g23
g15
tp536
I87
s(g33
g64
tp537
I1
s(g24
g8
tp538
I6
s(g21
g11
tp539
I469
s(g30
g55
tp540
I146
s(g37
g21
tp541
I2387
s(g37
g8
tp542
I14
s(g10
g53
tp543
I3085
s(g30
g53
tp544
I177
s(g46
g46
tp545
I4802
s(g55
g55
tp546
I6
s(g69
g44
tp547
I1977
s(g4
g71
tp548
I1405
s(g16
g18
tp549
I389
s(g5
g37
tp550
I1926
s(g24
g37
tp551
I4
s(g5
g31
tp552
I6
s(g69
g69
tp553
I73
s(g46
g30
tp554
I12220
s(g64
g4
tp555
I2
s(g8
g18
tp556
I60
s(g21
g37
tp557
I797
s(g5
g8
tp558
I224
s(g26
g10
tp559
I602
s(g37
g53
tp560
I53
s(g4
g41
tp561
I1414
s(g5
g44
tp562
I1955
s(g28
g16
tp563
I2
s(g10
g21
tp564
I4346
s(g23
g41
tp565
I4140
s(g18
g24
tp566
I90
s(g31
g16
tp567
I2
s(g69
g15
tp568
I12348
s(g8
g71
tp569
I948
s(g53
g26
tp570
I831
s(g24
g10
tp571
I1142
s(g4
g69
tp572
I4792
s(g26
g5
tp573
I16
s(g69
g4
tp574
I4146
s(g13
g23
tp575
I1977
s(g20
g5
tp576
I595
s(g21
g46
tp577
I521
s(g23
g71
tp578
I254
s(g53
g7
tp579
I2
s(g24
g64
tp580
I135
s(g37
g4
tp581
I1
s(g46
g16
tp582
I1330
s(g53
g64
tp583
I14
s(g26
g69
tp584
I155
s(g46
g69
tp585
I8046
s(g55
g15
tp586
I9
s(g69
g33
tp587
I13507
s(g20
g55
tp588
I251
s(g4
g11
tp589
I5239
s(g16
g16
tp590
I21
s(g5
g4
tp591
I1304
s(g46
g55
tp592
I2752
s(g69
g46
tp593
I136
s(g15
g55
tp594
I394
s(g64
g37
tp595
I3
s(g23
g4
tp596
I1
s(g8
g21
tp597
I4516
s(g33
g33
tp598
I2413
s(g5
g24
tp599
I654
s(g24
g71
tp600
I2448
s(g21
g15
tp601
I11224
s(g30
g44
tp602
I6
s(g37
g69
tp603
I1884
s(g16
g11
tp604
I4643
s(g44
g15
tp605
I2797
s(g44
g16
tp606
I21
s(g26
g4
tp607
I78
s(g69
g55
tp608
I2323
s(g8
g11
tp609
I1
s(g16
g5
tp610
I16
s(g24
g53
tp611
I94
s(g13
g46
tp612
I6132
s(g53
g37
tp613
I10
s(g15
g21
tp614
I8181
s(g69
g37
tp615
I2236
s(g20
g37
tp616
I12920
s(g23
g28
tp617
I1
s(g10
g31
tp618
I85
s(g28
g24
tp619
I20
s(g33
g15
tp620
I3504
s(g24
g20
tp621
I70
s(g21
g44
tp622
I2391
s(g18
g16
tp623
I454
s(g13
g8
tp624
I11122
s(g37
g37
tp625
I415
s(g46
g18
tp626
I9649
s(g46
g53
tp627
I3381
s(g26
g20
tp628
I92
s(g4
g30
tp629
I9
s(g5
g21
tp630
I83
s(g24
g21
tp631
I2443
s(g15
g11
tp632
I134
s(g46
g15
tp633
I21173
s(g5
g26
tp634
I62
s(g69
g26
tp635
I2659
s(g46
g71
tp636
I5490
s(g24
g11
tp637
I2
s(g10
g18
tp638
I10250
s(g26
g55
tp639
I1
s(g21
g21
tp640
I4271
s(g28
g46
tp641
I529
s(g5
g20
tp642
I3990
s(g55
g71
tp643
I3
s(g37
g46
tp644
I3866
s(g5
g7
tp645
I22
s(g16
g71
tp646
I304
s(g33
g4
tp647
I670
s(g13
g16
tp648
I19028
s(g8
g30
tp649
I3
s(g15
g69
tp650
I5175
s(g4
g26
tp651
I332
s(g7
g24
tp652
I1
s(g55
g41
tp653
I82
s(g44
g26
tp654
I184
s(g26
g7
tp655
I2
s(g21
g53
tp656
I5375
s(g53
g44
tp657
I1663
s(g18
g18
tp658
I3400
s(g7
g4
tp659
I295
s(g53
g24
tp660
I1085
s(g20
g71
tp661
I909
s(g33
g69
tp662
I4475
s(g46
g10
tp663
I1650
s(g5
g23
tp664
I29
s(g10
g8
tp665
I1875
s(g31
g44
tp666
I1
s(g46
g11
tp667
I380
s(g23
g23
tp668
I3
s(g8
g37
tp669
I2
s(g30
g18
tp670
I1453
s(g55
g11
tp671
I3
s(g21
g28
tp672
I104
s(g30
g7
tp673
I4
s(g11
g15
tp674
I1172
s(g44
g21
tp675
I2573
s(g44
g69
tp676
I2315
s.