ccollections
defaultdict
p0
(c__builtin__
int
p1
tp2
Rp3
(S'a'
p4
S'u'
p5
S's'
p6
tp7
I379
s(S'l'
p8
S'o'
p9
S'b'
p10
tp11
I30
s(g6
g9
S'm'
p12
tp13
I1020
s(S'y'
p14
S'g'
p15
S'i'
p16
tp17
I4
s(g15
g16
S'v'
p18
tp19
I284
s(g12
g12
g6
tp20
I29
s(g9
g15
S'r'
p21
tp22
I171
s(g9
S't'
p23
S'h'
p24
tp25
I1323
s(S'c'
p26
g5
g26
tp27
I1
s(g18
g4
g15
tp28
I220
s(g15
g5
g26
tp29
I4
s(g24
g23
g21
tp30
I2
s(S'n'
p31
g16
g5
tp32
I16
s(g18
g16
S'q'
p33
tp34
I1
s(g31
g9
g6
tp35
I78
s(g8
S'f'
p36
g26
tp37
I1
s(g26
g4
g14
tp38
I4
s(S'k'
p39
S'w'
p40
g4
tp41
I35
s(g26
g14
S'p'
p42
tp43
I2
s(g12
g9
g42
tp44
I9
s(g9
g8
g6
tp45
I60
s(g36
g9
g21
tp46
I3432
s(g31
g26
S'e'
p47
tp48
I1603
s(g24
g47
g15
tp49
I3
s(g14
g24
g47
tp50
I4
s(S'z'
p51
S'$'
p52
tp53
I228
s(g10
g8
g4
tp54
I251
s(g4
g31
g16
tp55
I426
s(g9
g16
g23
tp56
I5
s(g16
g24
g9
tp57
I2
s(g12
g10
g9
tp58
I46
s(g9
g31
g6
tp59
I1206
s(g8
g4
g26
tp60
I398
s(g42
g42
g16
tp61
I190
s(g51
g5
g21
tp62
I4
s(g23
g42
g21
tp63
I2
s(g8
g5
g18
tp64
I1
s(g36
g16
g8
tp65
I269
s(g8
g5
g15
tp66
I33
s(g36
S'x'
p67
g15
tp68
I2
s(g8
g10
g16
tp69
I1
s(g51
g51
g16
tp70
I9
s(g10
g23
g47
tp71
I4
s(g24
g23
g24
tp72
I18
s(g18
g47
g6
tp73
I361
s(g8
g12
g21
tp74
I1
s(g36
g16
g47
tp75
I217
s(g9
g12
g4
tp76
I338
s(g6
S'd'
p77
g21
tp78
I1
s(g8
g14
g42
tp79
I1
s(g14
g8
g8
tp80
I23
s(g4
g77
g6
tp81
I118
s(g10
g36
g8
tp82
I2
s(g42
g16
g18
tp83
I6
s(g5
g42
g16
tp84
I58
s(g23
g16
g47
tp85
I171
s(g36
g26
g10
tp86
I1
s(g23
g18
g31
tp87
I1
s(g12
g39
g5
tp88
I1
s(g42
g9
g40
tp89
I164
s(g31
g16
g6
tp90
I310
s(g12
g4
g47
tp91
I1
s(g14
g21
g47
tp92
I2
s(g31
g14
g42
tp93
I2
s(g12
g9
g15
tp94
I8
s(g9
g12
g36
tp95
I92
s(g77
g16
g15
tp96
I65
s(g16
g6
g14
tp97
I6
s(g21
g15
g21
tp98
I15
s(g6
g15
g16
tp99
I1
s(g51
g47
g77
tp100
I198
s(g21
g42
g47
tp101
I44
s(g21
g21
g47
tp102
I213
s(g12
g77
g26
tp103
I1
s(g6
g14
g8
tp104
I11
s(g21
g39
g10
tp105
I2
s(g23
g9
g16
tp106
I17
s(g8
g5
g4
tp107
I44
s(g4
g8
g40
tp108
I199
s(g4
g39
g47
tp109
I1079
s(g24
g21
g14
tp110
I4
s(g47
g10
g16
tp111
I1
s(g16
g6
g26
tp112
I148
s(g21
g14
g26
tp113
I1
s(g8
g4
g8
tp114
I1
s(g6
g6
g40
tp115
I17
s(g77
g16
g36
tp116
I184
s(g16
g42
g47
tp117
I91
s(g9
g77
g5
tp118
I140
s(g23
g23
g9
tp119
I119
s(g47
g5
g10
tp120
I7
s(g9
g77
g36
tp121
I4
s(g15
g47
g6
tp122
I283
s(g40
g10
g6
tp123
I1
s(g47
g9
g16
tp124
I2
s(g42
g9
g67
tp125
I1
s(g42
g21
g9
tp126
I1452
s(g12
g21
g9
tp127
I3
s(g47
g8
g40
tp128
I48
s(g21
g31
g5
tp129
I1
s(g4
g21
g4
tp130
I206
s(g21
g5
g26
tp131
I123
s(g16
g8
g42
tp132
I2
s(g9
g10
g4
tp133
I75
s(g23
g6
g10
tp134
I1
s(g31
g6
g77
tp135
I1
s(g42
g16
g67
tp136
I9
s(g31
g51
g8
tp137
I2
s(g6
g21
g4
tp138
I4
s(g36
g47
g36
tp139
I1
s(g47
g67
g16
tp140
I79
s(g21
g4
g39
tp141
I48
s(g47
g5
g67
tp142
I5
s(g39
g4
g12
tp143
I16
s(g9
g31
g40
tp144
I4
s(g31
g21
g10
tp145
I2
s(g21
g47
g24
tp146
I40
s(g12
g6
g47
tp147
I238
s(g26
g4
g10
tp148
I64
s(g21
g42
g21
tp149
I62
s(g10
g42
g12
tp150
I1
s(g23
g47
g47
tp151
I220
s(g77
g47
g31
tp152
I776
s(g9
g42
g42
tp153
I270
s(g18
g6
g77
tp154
I1
s(S'j'
p155
g4
g12
tp156
I66
s(g77
g47
g26
tp157
I218
s(g26
g39
g31
tp158
I16
s(g77
g18
g77
tp159
I2
s(g36
g21
g4
tp160
I151
s(g67
g4
g67
tp161
I2
s(g39
g47
g21
tp162
I334
s(g23
g6
g42
tp163
I3
s(g42
g5
g6
tp164
I83
s(g31
g9
g67
tp165
I3
s(g77
g6
g31
tp166
I1
s(g9
g77
g39
tp167
I58
s(g10
g5
g51
tp168
I18
s(g4
g18
g21
tp169
I1
s(g67
g23
g9
tp170
I5
s(g4
g77
g24
tp171
I7
s(g4
g5
g16
tp172
I1
s(g6
g47
g51
tp173
I1
s(g47
g77
g24
tp174
I1
s(g42
g9
g21
tp175
I440
s(g42
g21
g47
tp176
I828
s(g9
g15
g16
tp177
I100
s(g47
g5
g40
tp178
I17
s(g14
g15
g6
tp179
I1
s(g21
g9
g24
tp180
I8
s(g51
g47
g21
tp181
I22
s(g40
g9
g47
tp182
I3
s(g24
g12
g6
tp183
I3
s(g31
g6
g36
tp184
I42
s(g26
g23
g6
tp185
I160
s(g9
g5
g42
tp186
I147
s(g9
g18
g16
tp187
I159
s(g26
g9
g36
tp188
I216
s(g14
g31
g9
tp189
I3
s(g9
g9
g24
tp190
I10
s(g39
g24
g4
tp191
I235
s(g77
g12
g6
tp192
I1
s(g15
g4
g5
tp193
I11
s(g8
g23
g51
tp194
I77
s(g21
g14
g40
tp195
I8
s(g21
g39
g31
tp196
I37
s(g42
g4
g24
tp197
I1
s(g12
g9
g51
tp198
I2
s(g42
g77
g6
tp199
I1
s(g26
g39
g77
tp200
I2
s(g39
g16
g4
tp201
I4
s(g8
g8
g77
tp202
I1
s(g4
g36
g8
tp203
I3
s(g39
g4
g39
tp204
I1
s(g4
g24
g8
tp205
I33
s(g47
g40
g21
tp206
I6
s(g9
g77
g4
tp207
I74
s(g4
g15
g31
tp208
I23
s(g10
g4
g18
tp209
I6
s(g12
g42
g4
tp210
I143
s(g16
g9
g12
tp211
I27
s(g24
g77
g9
tp212
I4
s(g77
g4
g40
tp213
I9
s(g77
g155
g47
tp214
I3
s(g155
g16
g23
tp215
I1
s(g14
g42
g12
tp216
I1
s(g47
g77
g10
tp217
I1
s(g21
g23
g6
tp218
I307
s(g8
g24
g16
tp219
I11
s(g6
g77
g9
tp220
I6
s(g31
g4
g51
tp221
I4
s(g15
g8
g14
tp222
I134
s(g10
g9
g15
tp223
I3
s(g9
g40
g36
tp224
I5
s(g47
g12
g5
tp225
I12
s(g18
g42
g6
tp226
I1
s(g47
g16
g12
tp227
I9
s(g12
g36
g5
tp228
I3
s(g5
g26
g14
tp229
I4
s(g4
g77
g36
tp230
I24
s(g23
g23
g47
tp231
I1083
s(g5
g21
g36
tp232
I23
s(g16
g9
g21
tp233
I59
s(g36
g36
g6
tp234
I25
s(g21
g4
g23
tp235
I836
s(g47
g8
g39
tp236
I1
s(g23
g24
g47
tp237
I25169
s(g26
g14
g26
tp238
I31
s(g10
g4
g39
tp239
I14
s(g21
g6
g26
tp240
I1
s(g26
g23
g5
tp241
I208
s(g12
g26
g77
tp242
I4
s(g6
g23
g12
tp243
I41
s(g5
g26
g26
tp244
I58
s(g21
g14
g5
tp245
I3
s(g10
g6
g14
tp246
I1
s(g77
g9
g14
tp247
I1
s(g9
g40
g47
tp248
I614
s(g36
g9
g9
tp249
I169
s(g77
g40
g21
tp250
I3
s(g39
g16
g18
tp251
I8
s(g6
g5
g42
tp252
I275
s(g42
g4
g31
tp253
I166
s(g10
g16
g51
tp254
I9
s(g31
g6
g24
tp255
I31
s(g67
g16
g26
tp256
I37
s(g21
g40
g24
tp257
I8
s(g6
g5
g47
tp258
I36
s(g16
g21
g15
tp259
I13
s(g23
g42
g9
tp260
I2
s(g16
g23
g39
tp261
I2
s(g47
g6
g10
tp262
I1
s(g47
g23
g26
tp263
I76
s(g77
g12
g12
tp264
I2
s(g4
g26
g21
tp265
I154
s(S'^'
p266
g5
tp267
I2093
s(g4
g47
g31
tp268
I3
s(g31
g39
g6
tp269
I116
s(g24
g10
g47
tp270
I1
s(g5
g12
g47
tp271
I150
s(g51
g16
g31
tp272
I122
s(g12
g47
g67
tp273
I14
s(g16
g42
g9
tp274
I4
s(g24
g23
g9
tp275
I4
s(g23
g31
g77
tp276
I17
s(g21
g42
g12
tp277
I1
s(g16
g23
g23
tp278
I676
s(g42
g26
g9
tp279
I3
s(g14
g4
g39
tp280
I7
s(g9
g16
g4
tp281
I2
s(g23
g24
g26
tp282
I2
s(g36
g23
g12
tp283
I3
s(g24
g26
g9
tp284
I2
s(g23
g5
g36
tp285
I55
s(g18
g47
g47
tp286
I2
s(g21
g6
g47
tp287
I595
s(g5
g23
g6
tp288
I125
s(g5
g16
g39
tp289
I1
s(g5
g23
g16
tp290
I262
s(g47
g14
g12
tp291
I4
s(g26
g24
g26
tp292
I5
s(g16
g47
g40
tp293
I93
s(g39
g77
g21
tp294
I2
s(g31
g5
g16
tp295
I17
s(g21
g10
g14
tp296
I12
s(g4
g23
g12
tp297
I29
s(g16
g36
g23
tp298
I214
s(g12
g10
g16
tp299
I75
s(g23
g23
g14
tp300
I43
s(g36
g77
g4
tp301
I2
s(g18
g47
g8
tp302
I312
s(g21
g4
g14
tp303
I79
s(g47
g26
g21
tp304
I101
s(g40
g24
g14
tp305
I247
s(g15
g8
g47
tp306
I244
s(g16
g21
g16
tp307
I97
s(g67
g23
g16
tp308
I9
s(g42
g9
g9
tp309
I142
s(g14
g12
g10
tp310
I30
s(g42
g16
g15
tp311
I25
s(g26
g31
g47
tp312
I2
s(g16
g8
g15
tp313
I2
s(g6
g47
g42
tp314
I61
s(g4
g12
g14
tp315
I12
s(g40
g10
g47
tp316
I13
s(g31
g14
g47
tp317
I5
s(g8
g31
g4
tp318
I1
s(g6
g10
g5
tp319
I2
s(g26
g42
g4
tp320
I2
s(g4
g8
g42
tp321
I72
s(g8
g23
g77
tp322
I1
s(g6
g77
g16
tp323
I1
s(g42
g6
g47
tp324
I56
s(g18
g16
g31
tp325
I444
s(g15
g10
g10
tp326
I6
s(g23
g5
g77
tp327
I192
s(g26
g24
g23
tp328
I6
s(g8
g77
g14
tp329
I3
s(g4
g31
g77
tp330
I9778
s(g23
g16
g23
tp331
I185
s(g26
g16
g47
tp332
I335
s(g5
g36
g4
tp333
I5
s(g47
g47
g10
tp334
I13
s(g77
g12
g16
tp335
I75
s(g4
g23
g39
tp336
I1
s(g16
g23
g40
tp337
I9
s(g77
g4
g33
tp338
I2
s(g47
g14
g24
tp339
I2
s(g14
g23
g47
tp340
I6
s(g5
g10
g14
tp341
I2
s(g6
g47
g12
tp342
I64
s(g24
g16
g12
tp343
I1001
s(g24
g6
g9
tp344
I5
s(g9
g15
g15
tp345
I19
s(g42
g9
g16
tp346
I253
s(g16
g8
g47
tp347
I618
s(g14
g31
g77
tp348
I3
s(g23
g16
g18
tp349
I369
s(g4
g47
g10
tp350
I1
s(g6
g26
g24
tp351
I246
s(g8
g47
g15
tp352
I166
s(g47
g36
g16
tp353
I112
s(g5
g21
g6
tp354
I479
s(g31
g77
g10
tp355
I11
s(g47
g26
g8
tp356
I19
s(g31
g77
g40
tp357
I14
s(g31
g10
g47
tp358
I62
s(g24
g16
g31
tp359
I2455
s(g39
g16
g23
tp360
I35
s(g155
g9
g6
tp361
I19
s(g31
g4
g5
tp362
I15
s(g26
g21
g26
tp363
I1
s(g5
g4
g4
tp364
I1
s(g42
g9
g155
tp365
I1
s(g31
g77
g16
tp366
I511
s(g31
g31
g5
tp367
I12
s(g47
g14
g4
tp368
I1
s(g10
g9
g9
tp369
I275
s(g77
g40
g16
tp370
I31
s(g6
g6
g31
tp371
I9
s(g14
g4
g23
tp372
I1
s(g18
g18
g47
tp373
I6
s(g42
g42
g9
tp374
I216
s(g12
g16
g8
tp375
I402
s(g9
g8
g26
tp376
I2
s(g24
g47
g40
tp377
I11
s(g8
g77
g40
tp378
I3
s(g6
g26
g15
tp379
I1
s(g16
g36
g16
tp380
I252
s(g24
g5
g26
tp381
I12
s(g4
g12
g5
tp382
I32
s(g12
g16
g4
tp383
I15
s(g6
g16
g8
tp384
I293
s(g31
g5
g6
tp385
I22
s(g9
g12
g8
tp386
I5
s(g16
g23
g14
tp387
I660
s(g4
g51
g39
tp388
I7
s(g9
g6
g6
tp389
I410
s(g23
g5
g67
tp390
I1
s(g12
g26
g8
tp391
I1
s(g9
g5
g4
tp392
I4
s(g8
g4
g6
tp393
I702
s(g9
g4
g18
tp394
I1
s(g4
g36
g23
tp395
I383
s(g4
g47
g77
tp396
I23
s(g77
g26
g24
tp397
I2
s(g23
g21
g36
tp398
I1
s(g47
g31
g42
tp399
I3
s(g31
g23
g16
tp400
I801
s(g31
g18
g4
tp401
I11
s(g15
g47
g23
tp402
I738
s(g10
g4
g31
tp403
I154
s(g4
g26
g6
tp404
I6
s(g21
g47
g8
tp405
I353
s(g40
g4
g12
tp406
I10
s(g39
g47
g24
tp407
I1
s(g6
g39
g8
tp408
I6
s(g14
g6
g47
tp409
I28
s(g6
g5
g12
tp410
I105
s(g9
g18
g12
tp411
I1
s(g47
g6
g77
tp412
I11
s(g47
g39
g6
tp413
I59
s(g24
g14
g12
tp414
I9
s(g6
g4
g23
tp415
I181
s(g9
g23
g6
tp416
I109
s(g8
g21
g47
tp417
I57
s(g9
g6
g42
tp418
I67
s(g39
g47
g4
tp419
I5
s(g31
g26
g5
tp420
I11
s(g24
g21
g4
tp421
I30
s(g4
g21
g36
tp422
I33
s(g40
g21
g16
tp423
I209
s(g9
g21
g21
tp424
I415
s(g8
g77
g5
tp425
I1
s(g6
g26
g4
tp426
I196
s(g15
g9
g6
tp427
I10
s(g21
g42
g24
tp428
I36
s(g26
g16
g16
tp429
I4
s(g12
g12
g9
tp430
I124
s(g16
g4
g51
tp431
I1
s(g9
g9
g12
tp432
I376
s(g31
g47
g47
tp433
I274
s(g23
g24
g23
tp434
I4
s(g31
g12
g9
tp435
I3
s(g155
g9
g16
tp436
I58
s(g77
g4
g47
tp437
I2
s(g8
g39
g6
tp438
I24
s(g9
g21
g6
tp439
I334
s(g26
g14
g12
tp440
I1
s(g16
g24
g16
tp441
I6
s(g16
g26
g47
tp442
I1358
s(g6
g6
g42
tp443
I1
s(g15
g52
tp444
I11491
s(g5
g77
g77
tp445
I260
s(g21
g6
g23
tp446
I514
s(g9
g40
g24
tp447
I8
s(g8
g8
g5
tp448
I29
s(g5
g16
g21
tp449
I91
s(g39
g4
g36
tp450
I2
s(g21
g5
g6
tp451
I189
s(g6
g23
g24
tp452
I58
s(g6
g6
g10
tp453
I4
s(g21
g26
g26
tp454
I2
s(g40
g9
g8
tp455
I25
s(g47
g31
g39
tp456
I2
s(g14
g5
g8
tp457
I2
s(g21
g42
g5
tp458
I7
s(g9
g10
g24
tp459
I1
s(g26
g47
g36
tp460
I14
s(g4
g21
g51
tp461
I3
s(g6
g9
g4
tp462
I18
s(g15
g9
g5
tp463
I11
s(g40
g40
g14
tp464
I4
s(g6
g47
g26
tp465
I374
s(g18
g4
g8
tp466
I145
s(g31
g26
g24
tp467
I255
s(g47
g77
g4
tp468
I26
s(g42
g4
g4
tp469
I2
s(g21
g23
g21
tp470
I37
s(g16
g31
g36
tp471
I196
s(g23
g24
g21
tp472
I915
s(g4
g40
g36
tp473
I28
s(g4
g8
g4
tp474
I130
s(g23
g4
g5
tp475
I38
s(g5
g39
g16
tp476
I1
s(g47
g16
g31
tp477
I458
s(g12
g42
g9
tp478
I169
s(g266
g51
tp479
I158
s(g42
g47
g9
tp480
I339
s(g12
g5
g36
tp481
I16
s(g16
g31
g33
tp482
I34
s(g10
g4
g12
tp483
I12
s(g31
g16
g9
tp484
I55
s(g21
g9
g18
tp485
I187
s(g4
g67
g9
tp486
I7
s(g21
g155
g8
tp487
I1
s(g24
g5
g31
tp488
I227
s(g47
g31
g8
tp489
I178
s(g16
g12
g10
tp490
I71
s(g77
g24
g4
tp491
I5
s(g31
g47
g36
tp492
I15
s(g26
g23
g4
tp493
I57
s(g23
g10
g6
tp494
I1
s(g47
g9
g31
tp495
I124
s(g4
g24
g4
tp496
I13
s(g9
g16
g31
tp497
I679
s(g16
g8
g12
tp498
I26
s(g16
g47
g8
tp499
I149
s(g6
g26
g42
tp500
I1
s(g8
g47
g9
tp501
I38
s(g26
g4
g21
tp502
I541
s(g16
g26
g14
tp503
I24
s(g47
g33
g5
tp504
I225
s(g16
g51
g47
tp505
I311
s(g10
g21
g47
tp506
I293
s(g51
g14
g12
tp507
I6
s(g24
g4
g39
tp508
I110
s(g42
g6
g23
tp509
I13
s(g39
g16
g10
tp510
I2
s(g5
g6
g39
tp511
I3
s(g6
g31
g15
tp512
I5
s(g26
g77
g9
tp513
I1
s(g39
g6
g15
tp514
I1
s(g9
g9
g4
tp515
I1
s(g4
g14
g42
tp516
I4
s(g4
g5
g18
tp517
I3
s(g266
g4
tp518
I21396
s(g77
g5
g42
tp519
I10
s(g77
g14
g31
tp520
I18
s(g5
g39
g9
tp521
I8
s(g9
g26
g24
tp522
I28
s(g40
g40
g40
tp523
I12
s(g16
g12
g23
tp524
I1
s(g8
g16
g18
tp525
I201
s(g36
g16
g51
tp526
I5
s(g51
g4
g42
tp527
I11
s(g4
g31
g40
tp528
I25
s(g31
g9
g10
tp529
I69
s(g77
g4
g16
tp530
I38
s(g23
g47
g24
tp531
I3
s(g9
g8
g39
tp532
I11
s(g5
g21
g18
tp533
I37
s(g9
g42
g39
tp534
I2
s(g12
g31
g6
tp535
I2
s(g47
g15
g6
tp536
I55
s(g23
g10
g10
tp537
I5
s(g42
g5
g77
tp538
I22
s(g39
g8
g4
tp539
I13
s(g5
g77
g42
tp540
I2
s(g23
g10
g5
tp541
I8
s(g42
g4
g5
tp542
I64
s(g42
g47
g6
tp543
I96
s(g9
g31
g39
tp544
I12
s(g39
g12
g4
tp545
I4
s(g23
g18
g16
tp546
I1
s(g10
g6
g16
tp547
I6
s(g51
g40
g39
tp548
I1
s(g77
g77
g16
tp549
I122
s(g155
g4
g14
tp550
I5
s(g10
g8
g16
tp551
I275
s(g16
g6
g9
tp552
I85
s(g67
g21
g47
tp553
I1
s(g15
g31
g47
tp554
I62
s(g21
g23
g26
tp555
I3
s(g266
g155
tp556
I1905
s(g47
g31
g15
tp557
I227
s(g23
g47
g8
tp558
I658
s(g67
g26
g40
tp559
I1
s(g5
g77
g6
tp560
I159
s(g5
g16
g77
tp561
I101
s(g31
g23
g21
tp562
I411
s(g33
g10
g4
tp563
I1
s(g8
g5
g9
tp564
I2
s(g8
g31
g5
tp565
I1
s(g16
g77
g40
tp566
I1
s(g40
g36
g5
tp567
I31
s(g51
g16
g12
tp568
I3
s(g5
g31
g5
tp569
I15
s(g10
g16
g9
tp570
I21
s(g4
g14
g77
tp571
I8
s(g31
g9
g77
tp572
I53
s(g4
g8
g5
tp573
I59
s(g15
g16
g47
tp574
I14
s(g40
g6
g8
tp575
I3
s(g42
g47
g23
tp576
I163
s(g40
g8
g4
tp577
I3
s(g47
g6
g16
tp578
I222
s(g9
g42
g12
tp579
I18
s(g77
g47
g42
tp580
I125
s(g39
g9
g24
tp581
I1
s(g26
g5
g42
tp582
I119
s(g4
g6
g33
tp583
I101
s(g23
g18
g15
tp584
I1
s(g5
g23
g36
tp585
I1
s(g12
g23
g9
tp586
I2
s(g77
g23
g24
tp587
I7
s(g8
g16
g8
tp588
I20
s(g26
g10
g26
tp589
I1
s(g26
g24
g10
tp590
I7
s(g5
g18
g21
tp591
I1
s(g9
g24
g12
tp592
I2
s(g23
g15
g5
tp593
I3
s(g47
g8
g16
tp594
I510
s(g67
g16
g8
tp595
I1
s(g21
g15
g14
tp596
I46
s(g47
g15
g47
tp597
I54
s(g47
g31
g4
tp598
I113
s(g6
g26
g8
tp599
I26
s(g31
g16
g77
tp600
I5
s(g9
g15
g6
tp601
I23
s(g24
g31
g8
tp602
I1
s(g4
g67
g23
tp603
I4
s(g8
g9
g12
tp604
I16
s(g8
g5
g16
tp605
I7
s(g67
g9
g23
tp606
I4
s(g67
g23
g14
tp607
I11
s(g15
g9
g18
tp608
I53
s(g24
g10
g5
tp609
I11
s(g26
g14
g51
tp610
I5
s(g4
g21
g15
tp611
I349
s(g4
g31
g6
tp612
I465
s(g23
g9
g67
tp613
I19
s(g26
g10
g10
tp614
I1
s(g9
g15
g31
tp615
I39
s(g36
g9
g6
tp616
I48
s(g18
g16
g12
tp617
I1
s(g77
g15
g4
tp618
I4
s(g15
g5
g21
tp619
I63
s(g4
g14
g12
tp620
I7
s(g16
g5
g6
tp621
I54
s(g8
g9
g31
tp622
I740
s(g21
g6
g40
tp623
I1
s(g31
g6
g39
tp624
I4
s(g26
g24
g6
tp625
I5
s(g4
g23
g18
tp626
I3
s(g51
g47
g15
tp627
I2
s(g8
g9
g26
tp628
I392
s(g26
g14
g23
tp629
I3
s(g26
g52
tp630
I1245
s(g47
g47
g26
tp631
I42
s(g8
g42
g47
tp632
I13
s(g4
g5
g23
tp633
I195
s(g21
g12
g5
tp634
I47
s(g23
g16
g10
tp635
I37
s(g21
g16
g26
tp636
I456
s(g9
g21
g77
tp637
I717
s(g26
g8
g9
tp638
I299
s(g47
g8
g51
tp639
I1
s(g40
g77
g5
tp640
I1
s(g12
g9
g23
tp641
I240
s(g6
g24
g21
tp642
I125
s(g12
g6
g23
tp643
I27
s(g31
g16
g10
tp644
I10
s(g16
g39
g4
tp645
I7
s(g18
g4
g6
tp646
I134
s(g155
g4
g5
tp647
I4
s(g10
g8
g47
tp648
I1349
s(g4
g15
g4
tp649
I553
s(g9
g15
g5
tp650
I15
s(g31
g40
g9
tp651
I9
s(g21
g42
g16
tp652
I28
s(g23
g16
g36
tp653
I169
s(g77
g21
g10
tp654
I1
s(g47
g10
g9
tp655
I71
s(g40
g16
g9
tp656
I3
s(g8
g9
g77
tp657
I28
s(g10
g23
g4
tp658
I14
s(g12
g5
g31
tp659
I99
s(g36
g5
g5
tp660
I1
s(g5
g9
g16
tp661
I8
s(g16
g36
g9
tp662
I19
s(g16
g51
g12
tp663
I3
s(g24
g24
g6
tp664
I1
s(g39
g14
g8
tp665
I1
s(g5
g42
g47
tp666
I88
s(g4
g42
g8
tp667
I5
s(g26
g39
g42
tp668
I14
s(g77
g8
g16
tp669
I31
s(g40
g16
g77
tp670
I111
s(g10
g31
g9
tp671
I8
s(g40
g39
g16
tp672
I2
s(g21
g47
g5
tp673
I17
s(g14
g18
g16
tp674
I1
s(g31
g9
g9
tp675
I35
s(g26
g5
g8
tp676
I276
s(g16
g8
g18
tp677
I38
s(g4
g51
g16
tp678
I63
s(g6
g9
g40
tp679
I1
s(g6
g16
g47
tp680
I41
s(g39
g6
g9
tp681
I8
s(g9
g4
g39
tp682
I46
s(g36
g9
g16
tp683
I3
s(g12
g42
g16
tp684
I67
s(g47
g10
g47
tp685
I18
s(g9
g12
g10
tp686
I94
s(g40
g47
g36
tp687
I2
s(g67
g47
g6
tp688
I24
s(g8
g4
g67
tp689
I48
s(g10
g4
g15
tp690
I40
s(g40
g10
g21
tp691
I1
s(g21
g21
g16
tp692
I527
s(g5
g33
g5
tp693
I1
s(g8
g4
g4
tp694
I3
s(g8
g23
g21
tp695
I8
s(g31
g18
g9
tp696
I17
s(g42
g8
g42
tp697
I2
s(g12
g9
g10
tp698
I17
s(g8
g5
g47
tp699
I132
s(g26
g42
g5
tp700
I5
s(g42
g9
g23
tp701
I257
s(g21
g16
g77
tp702
I478
s(g8
g10
g4
tp703
I2
s(g16
g42
g4
tp704
I23
s(g14
g21
g77
tp705
I3
s(g47
g21
g39
tp706
I23
s(g4
g16
g77
tp707
I2090
s(g5
g10
g155
tp708
I58
s(g47
g39
g8
tp709
I7
s(g4
g16
g51
tp710
I1
s(g36
g16
g26
tp711
I340
s(g15
g47
g9
tp712
I204
s(g21
g39
g4
tp713
I8
s(g42
g16
g39
tp714
I3
s(g67
g42
g21
tp715
I103
s(g12
g12
g16
tp716
I89
s(g6
g21
g47
tp717
I6
s(g21
g47
g6
tp718
I1463
s(g8
g23
g6
tp719
I47
s(g23
g40
g23
tp720
I1
s(g21
g77
g10
tp721
I2
s(g6
g24
g26
tp722
I1
s(g10
g5
g31
tp723
I18
s(g5
g21
g31
tp724
I540
s(g16
g18
g9
tp725
I9
s(g47
g21
g21
tp726
I328
s(g26
g39
g10
tp727
I7
s(g31
g9
g8
tp728
I31
s(g40
g24
g9
tp729
I887
s(g77
g16
g47
tp730
I251
s(g47
g18
g21
tp731
I4
s(g21
g9
g39
tp732
I71
s(g21
g4
g9
tp733
I17
s(g4
g16
g26
tp734
I13
s(g15
g39
g16
tp735
I2
s(g16
g4
g155
tp736
I1
s(g23
g47
g16
tp737
I24
s(g266
g77
tp738
I7969
s(g4
g16
g31
tp739
I1512
s(g9
g5
g40
tp740
I1
s(g16
g15
g47
tp741
I53
s(g47
g5
g8
tp742
I2
s(g9
g14
g4
tp743
I32
s(g21
g77
g4
tp744
I46
s(g47
g9
g10
tp745
I24
s(g67
g16
g6
tp746
I47
s(g67
g4
g12
tp747
I88
s(g15
g4
g21
tp748
I168
s(g24
g16
g51
tp749
I7
s(g4
g77
g77
tp750
I266
s(g10
g10
g5
tp751
I1
s(g21
g4
g31
tp752
I872
s(g9
g67
g14
tp753
I8
s(g8
g21
g5
tp754
I1
s(g10
g5
g6
tp755
I139
s(g39
g14
g4
tp756
I1
s(g23
g23
g15
tp757
I2
s(g9
g9
g18
tp758
I10
s(g15
g4
g14
tp759
I6
s(g40
g77
g8
tp760
I3
s(g16
g12
g26
tp761
I1
s(g16
g4
g16
tp762
I1
s(g5
g31
g24
tp763
I16
s(g36
g21
g10
tp764
I1
s(g42
g23
g23
tp765
I2
s(g42
g5
g21
tp766
I132
s(g42
g16
g12
tp767
I4
s(g31
g6
g10
tp768
I2
s(g36
g36
g16
tp769
I305
s(g21
g31
g6
tp770
I82
s(g5
g21
g8
tp771
I49
s(g14
g47
g24
tp772
I17
s(g5
g31
g51
tp773
I3
s(g42
g14
g21
tp774
I30
s(g47
g40
g31
tp775
I3
s(g31
g9
g40
tp776
I1120
s(g31
g47
g5
tp777
I37
s(g39
g10
g21
tp778
I1
s(g24
g8
g16
tp779
I8
s(g31
g21
g4
tp780
I6
s(g6
g4
g6
tp781
I8
s(g8
g8
g24
tp782
I18
s(g4
g14
g6
tp783
I412
s(g39
g31
g5
tp784
I6
s(g26
g8
g14
tp785
I3
s(g42
g21
g14
tp786
I4
s(g23
g9
g42
tp787
I313
s(g36
g4
g33
tp788
I5
s(g67
g16
g23
tp789
I7
s(g77
g47
g47
tp790
I143
s(g77
g77
g21
tp791
I37
s(g42
g31
g47
tp792
I14
s(g9
g51
g47
tp793
I43
s(g42
g4
g51
tp794
I1
s(g9
g40
g155
tp795
I5
s(g47
g24
g12
tp796
I3
s(g31
g31
g9
tp797
I77
s(g5
g42
g9
tp798
I86
s(g14
g9
g77
tp799
I2
s(g21
g9
g36
tp800
I248
s(g4
g10
g31
tp801
I7
s(g26
g14
g15
tp802
I13
s(g4
g77
g10
tp803
I2
s(g47
g39
g24
tp804
I2
s(g16
g23
g31
tp805
I15
s(g51
g39
g14
tp806
I2
s(g5
g21
g10
tp807
I26
s(g12
g14
g14
tp808
I1
s(g31
g42
g47
tp809
I1
s(g31
g40
g21
tp810
I1
s(g14
g42
g8
tp811
I2
s(g39
g10
g47
tp812
I4
s(g23
g47
g77
tp813
I1772
s(g6
g4
g12
tp814
I208
s(g16
g12
g47
tp815
I834
s(g10
g10
g26
tp816
I5
s(g24
g40
g9
tp817
I8
s(g6
g24
g9
tp818
I1026
s(g5
g5
g12
tp819
I14
s(g9
g47
g14
tp820
I23
s(g12
g47
g15
tp821
I11
s(g18
g47
g15
tp822
I10
s(g15
g4
g40
tp823
I2
s(g31
g39
g21
tp824
I2
s(g47
g8
g21
tp825
I3
s(g5
g51
g9
tp826
I5
s(g18
g9
g77
tp827
I58
s(g47
g6
g5
tp828
I86
s(g14
g77
g4
tp829
I11
s(g5
g67
g36
tp830
I1
s(g31
g16
g51
tp831
I78
s(g18
g10
g16
tp832
I3
s(g21
g6
g9
tp833
I174
s(g10
g6
g8
tp834
I1
s(g15
g47
g24
tp835
I12
s(g9
g42
g16
tp836
I111
s(g5
g36
g23
tp837
I3
s(g4
g26
g4
tp838
I38
s(g47
g47
g51
tp839
I51
s(g15
g6
g77
tp840
I1
s(g21
g40
g4
tp841
I109
s(g21
g14
g23
tp842
I102
s(g12
g9
g8
tp843
I39
s(g10
g47
g23
tp844
I361
s(g39
g47
g12
tp845
I1
s(g31
g15
g6
tp846
I425
s(g16
g21
g6
tp847
I405
s(g77
g4
g14
tp848
I367
s(g12
g16
g23
tp849
I266
s(g5
g26
g23
tp850
I180
s(g5
g12
g4
tp851
I216
s(g31
g8
g47
tp852
I63
s(g5
g18
g47
tp853
I9
s(g77
g9
g47
tp854
I202
s(g26
g26
g6
tp855
I1
s(g36
g47
g6
tp856
I242
s(g21
g6
g4
tp857
I51
s(g6
g16
g23
tp858
I384
s(g24
g23
g39
tp859
I1
s(g36
g6
g16
tp860
I4
s(g77
g26
g47
tp861
I1
s(g14
g12
g5
tp862
I6
s(g4
g47
g9
tp863
I3
s(g77
g47
g14
tp864
I1
s(g4
g31
g36
tp865
I2
s(g16
g21
g8
tp866
I178
s(g4
g16
g14
tp867
I1
s(g5
g4
g23
tp868
I55
s(g77
g15
g5
tp869
I2
s(g77
g77
g14
tp870
I25
s(g8
g12
g31
tp871
I1
s(g36
g5
g31
tp872
I128
s(g4
g26
g39
tp873
I1217
s(g16
g36
g4
tp874
I7
s(g6
g18
g21
tp875
I1
s(g42
g6
g16
tp876
I57
s(g51
g77
g77
tp877
I1
s(g23
g26
g10
tp878
I1
s(g12
g47
g16
tp879
I1
s(g16
g39
g31
tp880
I3
s(g21
g31
g4
tp881
I387
s(g47
g77
g5
tp882
I115
s(g47
g16
g51
tp883
I44
s(g9
g36
g21
tp884
I1
s(g67
g16
g47
tp885
I25
s(g18
g5
g47
tp886
I1
s(g40
g9
g77
tp887
I2
s(g31
g9
g21
tp888
I298
s(g40
g12
g26
tp889
I1
s(g4
g52
tp890
I1980
s(g24
g4
g47
tp891
I25
s(g4
g8
g8
tp892
I3284
s(g36
g23
g24
tp893
I23
s(g4
g23
g4
tp894
I119
s(g8
g31
g47
tp895
I16
s(g6
g16
g6
tp896
I202
s(g10
g16
g8
tp897
I212
s(g8
g47
g4
tp898
I833
s(g77
g9
g9
tp899
I304
s(g51
g51
g14
tp900
I23
s(g16
g10
g21
tp901
I79
s(g8
g36
g15
tp902
I1
s(g14
g9
g6
tp903
I12
s(g16
g21
g5
tp904
I3
s(g51
g9
g31
tp905
I54
s(g15
g16
g5
tp906
I1
s(g31
g14
g4
tp907
I2
s(g21
g31
g36
tp908
I4
s(g16
g31
g5
tp909
I239
s(g40
g16
g18
tp910
I8
s(g39
g4
g42
tp911
I14
s(g77
g36
g5
tp912
I27
s(g21
g10
g9
tp913
I33
s(g9
g16
g26
tp914
I347
s(g42
g9
g8
tp915
I173
s(g77
g21
g5
tp916
I58
s(g6
g42
g5
tp917
I41
s(g24
g12
g16
tp918
I9
s(g24
g4
g40
tp919
I37
s(g6
g15
g6
tp920
I1
s(g24
g16
g14
tp921
I2
s(g6
g16
g21
tp922
I162
s(g5
g4
g18
tp923
I3
s(g6
g47
g33
tp924
I28
s(g26
g24
g4
tp925
I734
s(g10
g47
g24
tp926
I228
s(g42
g9
g47
tp927
I24
s(g31
g5
g18
tp928
I1
s(g77
g77
g31
tp929
I1
s(g9
g26
g9
tp930
I101
s(g39
g23
g5
tp931
I7
s(g21
g15
g16
tp932
I77
s(g26
g16
g4
tp933
I376
s(g42
g47
g26
tp934
I328
s(g77
g31
g47
tp935
I34
s(g23
g9
g9
tp936
I564
s(g9
g10
g5
tp937
I2
s(g24
g31
g9
tp938
I22
s(g9
g5
g31
tp939
I1444
s(g31
g14
g10
tp940
I13
s(g67
g26
g47
tp941
I109
s(g14
g77
g47
tp942
I7
s(g4
g4
g21
tp943
I3
s(g23
g26
g24
tp944
I638
s(g5
g24
g24
tp945
I4
s(g5
g42
g21
tp946
I23
s(g26
g9
g21
tp947
I419
s(g31
g9
g23
tp948
I1868
s(g10
g47
g16
tp949
I218
s(g12
g26
g21
tp950
I36
s(g16
g8
g4
tp951
I161
s(g15
g8
g9
tp952
I84
s(g42
g47
g14
tp953
I3
s(g47
g14
g40
tp954
I2
s(g26
g16
g36
tp955
I43
s(g51
g5
g12
tp956
I1
s(g47
g40
g36
tp957
I1
s(g51
g9
g8
tp958
I1
s(g21
g39
g8
tp959
I10
s(g51
g47
g6
tp960
I42
s(g4
g31
g67
tp961
I36
s(g5
g52
tp962
I3455
s(g9
g5
g9
tp963
I1
s(g51
g51
g8
tp964
I39
s(g47
g52
tp965
I51873
s(g31
g39
g16
tp966
I135
s(g16
g15
g6
tp967
I8
s(g31
g10
g4
tp968
I9
s(g31
g8
g16
tp969
I66
s(g9
g5
g77
tp970
I195
s(g26
g24
g21
tp971
I101
s(g39
g16
g42
tp972
I10
s(g39
g10
g9
tp973
I2
s(g8
g36
g16
tp974
I14
s(g8
g16
g10
tp975
I128
s(g9
g6
g15
tp976
I1
s(g31
g16
g23
tp977
I320
s(g6
g4
g26
tp978
I36
s(g31
g77
g47
tp979
I981
s(g42
g24
g5
tp980
I3
s(g39
g5
g6
tp981
I2
s(g26
g47
g31
tp982
I400
s(g10
g9
g39
tp983
I17
s(g155
g9
g15
tp984
I2
s(g16
g9
g16
tp985
I1
s(g26
g21
g14
tp986
I55
s(g5
g31
g42
tp987
I37
s(g14
g9
g8
tp988
I1
s(g31
g77
g42
tp989
I1
s(g155
g4
g21
tp990
I11
s(g12
g31
g16
tp991
I9
s(g10
g47
g47
tp992
I703
s(g39
g5
g24
tp993
I1
s(g23
g39
g47
tp994
I1
s(g4
g12
g36
tp995
I1
s(g12
g4
g67
tp996
I22
s(g9
g15
g47
tp997
I118
s(g4
g42
g5
tp998
I4
s(g5
g12
g42
tp999
I333
s(g8
g4
g77
tp1000
I122
s(g47
g16
g18
tp1001
I72
s(g31
g23
g12
tp1002
I20
s(g21
g51
g10
tp1003
I19
s(g23
g12
g36
tp1004
I1
s(g14
g51
g16
tp1005
I1
s(g14
g4
g40
tp1006
I13
s(g8
g4
g9
tp1007
I2
s(g8
g21
g16
tp1008
I22
s(g16
g12
g6
tp1009
I233
s(g15
g47
g42
tp1010
I1
s(g36
g15
g4
tp1011
I1
s(g47
g21
g51
tp1012
I19
s(g24
g9
g10
tp1013
I7
s(g16
g4
g31
tp1014
I474
s(g9
g52
tp1015
I3404
s(g8
g12
g5
tp1016
I1
s(g21
g23
g9
tp1017
I23
s(g31
g5
g21
tp1018
I39
s(g16
g51
g5
tp1019
I4
s(g21
g47
g47
tp1020
I732
s(g155
g47
g31
tp1021
I13
s(g9
g12
g12
tp1022
I336
s(g5
g42
g24
tp1023
I3
s(g39
g8
g9
tp1024
I2
s(g36
g23
g6
tp1025
I31
s(g77
g26
g9
tp1026
I1
s(g9
g5
g10
tp1027
I136
s(g16
g26
g10
tp1028
I1
s(g12
g12
g77
tp1029
I1
s(g39
g47
g47
tp1030
I149
s(g42
g47
g21
tp1031
I1376
s(g21
g15
g5
tp1032
I47
s(g5
g77
g4
tp1033
I2
s(g42
g6
g9
tp1034
I14
s(g14
g6
g6
tp1035
I3
s(g9
g21
g18
tp1036
I2
s(g6
g10
g8
tp1037
I1
s(g31
g47
g4
tp1038
I301
s(g24
g5
g4
tp1039
I1
s(g8
g4
g36
tp1040
I1
s(g15
g14
g42
tp1041
I8
s(g10
g4
g77
tp1042
I107
s(g15
g18
g4
tp1043
I1
s(g12
g31
g4
tp1044
I5
s(g39
g21
g9
tp1045
I1
s(g9
g4
g23
tp1046
I86
s(g47
g42
g23
tp1047
I321
s(g9
g6
g33
tp1048
I6
s(g8
g4
g33
tp1049
I1
s(g40
g16
g23
tp1050
I2496
s(g12
g42
g8
tp1051
I401
s(g16
g12
g14
tp1052
I6
s(g47
g4
g36
tp1053
I20
s(g21
g6
g42
tp1054
I15
s(g23
g9
g77
tp1055
I59
s(g40
g16
g16
tp1056
I1
s(g77
g47
g8
tp1057
I168
s(g26
g6
g26
tp1058
I1
s(g6
g47
g10
tp1059
I9
s(g67
g26
g8
tp1060
I20
s(g26
g15
g9
tp1061
I80
s(g36
g16
g10
tp1062
I2
s(g31
g47
g77
tp1063
I925
s(g15
g8
g5
tp1064
I13
s(g26
g4
g16
tp1065
I6
s(g21
g47
g26
tp1066
I569
s(g39
g9
g18
tp1067
I2
s(g47
g21
g67
tp1068
I4
s(g5
g9
g23
tp1069
I31
s(g24
g16
g26
tp1070
I952
s(g40
g6
g23
tp1071
I1
s(g39
g24
g9
tp1072
I2
s(g16
g10
g9
tp1073
I7
s(g10
g23
g6
tp1074
I7
s(g47
g16
g21
tp1075
I742
s(g4
g26
g24
tp1076
I653
s(g16
g31
g155
tp1077
I12
s(g155
g4
g31
tp1078
I26
s(g77
g15
g12
tp1079
I12
s(g77
g6
g9
tp1080
I150
s(g26
g47
g21
tp1081
I237
s(g47
g42
g21
tp1082
I65
s(g26
g26
g14
tp1083
I2
s(g47
g9
g21
tp1084
I266
s(g4
g42
g4
tp1085
I71
s(g4
g42
g14
tp1086
I1
s(g77
g47
g155
tp1087
I2
s(g4
g40
g10
tp1088
I16
s(g26
g14
g39
tp1089
I6
s(g5
g39
g47
tp1090
I10
s(g31
g5
g12
tp1091
I150
s(g47
g77
g12
tp1092
I7
s(g8
g77
g8
tp1093
I35
s(g5
g42
g8
tp1094
I42
s(g14
g51
g47
tp1095
I7
s(g4
g77
g26
tp1096
I73
s(g16
g39
g16
tp1097
I25
s(g18
g4
g67
tp1098
I4
s(g5
g47
g21
tp1099
I23
s(g24
g16
g77
tp1100
I71
s(g31
g155
g4
tp1101
I12
s(g24
g8
g14
tp1102
I61
s(g77
g39
g4
tp1103
I58
s(g26
g39
g36
tp1104
I1
s(g47
g21
g155
tp1105
I1
s(g4
g24
g47
tp1106
I33
s(g15
g23
g4
tp1107
I1
s(g8
g16
g77
tp1108
I172
s(g10
g21
g4
tp1109
I286
s(g5
g31
g18
tp1110
I1
s(g15
g15
g31
tp1111
I1
s(g21
g18
g47
tp1112
I150
s(g5
g6
g9
tp1113
I11
s(g4
g42
g47
tp1114
I295
s(g39
g4
g24
tp1115
I43
s(g8
g8
g26
tp1116
I1
s(g16
g31
g42
tp1117
I2
s(g14
g51
g40
tp1118
I1
s(g9
g42
g40
tp1119
I1
s(g21
g21
g5
tp1120
I41
s(g6
g5
g10
tp1121
I185
s(g12
g47
g31
tp1122
I1225
s(g16
g24
g36
tp1123
I1
s(g23
g39
g16
tp1124
I1
s(g24
g6
g77
tp1125
I1
s(g16
g12
g42
tp1126
I384
s(g21
g5
g12
tp1127
I198
s(g31
g5
g31
tp1128
I7
s(g31
g15
g5
tp1129
I116
s(g6
g26
g6
tp1130
I1
s(g47
g10
g14
tp1131
I7
s(g14
g15
g47
tp1132
I1
s(g14
g42
g4
tp1133
I1
s(g5
g67
g16
tp1134
I1
s(g47
g31
g155
tp1135
I49
s(g9
g31
g77
tp1136
I567
s(g47
g23
g8
tp1137
I40
s(g5
g21
g15
tp1138
I63
s(g21
g9
g23
tp1139
I161
s(g15
g15
g5
tp1140
I5
s(g31
g24
g39
tp1141
I1
s(g51
g9
g4
tp1142
I3
s(g8
g26
g16
tp1143
I5
s(g24
g5
g8
tp1144
I18
s(g6
g31
g14
tp1145
I1
s(g77
g9
g10
tp1146
I144
s(g5
g16
g26
tp1147
I205
s(g8
g14
g18
tp1148
I1
s(g21
g5
g31
tp1149
I272
s(g16
g8
g9
tp1150
I140
s(g5
g31
g4
tp1151
I71
s(g36
g47
g18
tp1152
I9
s(g39
g8
g47
tp1153
I87
s(g8
g40
g47
tp1154
I2
s(g9
g47
g16
tp1155
I7
s(g47
g23
g51
tp1156
I14
s(g31
g9
g4
tp1157
I2
s(g26
g9
g26
tp1158
I86
s(g36
g5
g12
tp1159
I22
s(g31
g36
g16
tp1160
I73
s(g8
g16
g33
tp1161
I41
s(g40
g4
g67
tp1162
I4
s(g39
g21
g16
tp1163
I4
s(g21
g36
g8
tp1164
I10
s(g16
g10
g47
tp1165
I96
s(g4
g15
g16
tp1166
I172
s(g9
g42
g14
tp1167
I78
s(g24
g14
g77
tp1168
I27
s(g15
g31
g4
tp1169
I69
s(g39
g6
g16
tp1170
I3
s(g42
g5
g26
tp1171
I15
s(g77
g14
g8
tp1172
I3
s(g40
g31
g40
tp1173
I9
s(g23
g47
g42
tp1174
I161
s(g51
g31
g14
tp1175
I2
s(g26
g9
g14
tp1176
I7
s(g10
g16
g39
tp1177
I1
s(g26
g10
g77
tp1178
I1
s(g6
g14
g6
tp1179
I183
s(g21
g36
g47
tp1180
I77
s(g14
g9
g23
tp1181
I7
s(g77
g9
g8
tp1182
I32
s(g21
g31
g9
tp1183
I96
s(g16
g26
g9
tp1184
I60
s(g16
g23
g12
tp1185
I2
s(g23
g14
g26
tp1186
I1
s(g10
g47
g6
tp1187
I278
s(g33
g5
g16
tp1188
I643
s(g18
g4
g16
tp1189
I49
s(g14
g77
g21
tp1190
I27
s(g26
g6
g36
tp1191
I1
s(g15
g5
g23
tp1192
I34
s(g8
g40
g9
tp1193
I3
s(g31
g23
g5
tp1194
I155
s(g9
g12
g42
tp1195
I499
s(g26
g5
g23
tp1196
I165
s(g23
g47
g5
tp1197
I5
s(g10
g26
g24
tp1198
I1
s(g4
g51
g4
tp1199
I16
s(g67
g5
g77
tp1200
I1
s(g23
g5
g16
tp1201
I14
s(g16
g36
g36
tp1202
I218
s(g8
g14
g9
tp1203
I2
s(g9
g8
g14
tp1204
I42
s(g15
g24
g40
tp1205
I2
s(g5
g10
g21
tp1206
I2
s(g15
g12
g23
tp1207
I6
s(g23
g14
g10
tp1208
I2
s(g8
g77
g4
tp1209
I6
s(g155
g36
g24
tp1210
I1
s(g4
g23
g8
tp1211
I94
s(g21
g12
g24
tp1212
I1
s(g6
g36
g47
tp1213
I14
s(g9
g10
g21
tp1214
I27
s(g40
g47
g31
tp1215
I343
s(g47
g15
g16
tp1216
I149
s(g18
g4
g155
tp1217
I1
s(g6
g51
g16
tp1218
I1
s(g47
g77
g21
tp1219
I29
s(g23
g14
g12
tp1220
I6
s(g8
g47
g24
tp1221
I12
s(g15
g5
g36
tp1222
I1
s(g42
g39
g16
tp1223
I12
s(g77
g9
g18
tp1224
I3
s(g15
g9
g15
tp1225
I29
s(g8
g5
g12
tp1226
I119
s(g67
g9
g42
tp1227
I5
s(g40
g4
g18
tp1228
I68
s(g4
g8
g39
tp1229
I349
s(g40
g31
g14
tp1230
I1
s(g31
g8
g5
tp1231
I3
s(g6
g26
g9
tp1232
I158
s(g4
g14
g10
tp1233
I47
s(g9
g40
g14
tp1234
I7
s(g16
g15
g23
tp1235
I1
s(g5
g10
g10
tp1236
I71
s(g6
g14
g21
tp1237
I6
s(g40
g77
g16
tp1238
I3
s(g23
g4
g26
tp1239
I190
s(g5
g16
g15
tp1240
I1
s(g23
g8
g15
tp1241
I2
s(g26
g18
g26
tp1242
I1
s(g31
g40
g24
tp1243
I26
s(g24
g5
g42
tp1244
I2
s(g24
g4
g18
tp1245
I1264
s(g21
g40
g9
tp1246
I4
s(g77
g15
g47
tp1247
I243
s(g9
g21
g9
tp1248
I77
s(g21
g6
g24
tp1249
I42
s(g4
g31
g4
tp1250
I223
s(g8
g14
g51
tp1251
I8
s(g23
g21
g9
tp1252
I591
s(g26
g5
g31
tp1253
I5
s(g5
g4
g14
tp1254
I3
s(g23
g26
g21
tp1255
I4
s(g67
g47
g12
tp1256
I4
s(g23
g21
g6
tp1257
I2
s(g23
g9
g31
tp1258
I324
s(g36
g40
g24
tp1259
I1
s(g9
g12
g77
tp1260
I4
s(g155
g26
g16
tp1261
I2
s(g47
g47
g31
tp1262
I1207
s(g16
g40
g4
tp1263
I2
s(g10
g9
g14
tp1264
I153
s(g9
g21
g24
tp1265
I2
s(g8
g9
g9
tp1266
I1156
s(g4
g6
g15
tp1267
I1
s(g4
g4
g10
tp1268
I1
s(g40
g16
g6
tp1269
I217
s(g26
g26
g8
tp1270
I5
s(g16
g8
g77
tp1271
I296
s(g4
g21
g31
tp1272
I155
s(g51
g51
g4
tp1273
I4
s(g15
g9
g16
tp1274
I248
s(g40
g40
g12
tp1275
I1
s(g16
g155
g24
tp1276
I1
s(g39
g9
g31
tp1277
I26
s(g14
g16
g6
tp1278
I4
s(g5
g21
g23
tp1279
I230
s(g10
g14
g6
tp1280
I3
s(g6
g24
g36
tp1281
I1
s(g9
g15
g8
tp1282
I3
s(g9
g12
g16
tp1283
I263
s(g31
g14
g40
tp1284
I37
s(g5
g10
g23
tp1285
I61
s(g31
g33
g24
tp1286
I3
s(g47
g26
g12
tp1287
I9
s(g21
g36
g16
tp1288
I6
s(g9
g16
g6
tp1289
I107
s(g36
g9
g5
tp1290
I424
s(g18
g4
g42
tp1291
I13
s(g5
g42
g4
tp1292
I4
s(g15
g24
g6
tp1293
I12
s(g155
g9
g21
tp1294
I54
s(g36
g26
g26
tp1295
I15
s(g14
g6
g24
tp1296
I1
s(g12
g5
g21
tp1297
I121
s(g15
g42
g16
tp1298
I1
s(g4
g10
g8
tp1299
I690
s(g67
g67
g16
tp1300
I1
s(g5
g23
g14
tp1301
I42
s(g10
g9
g21
tp1302
I132
s(g42
g52
tp1303
I1683
s(g42
g8
g5
tp1304
I78
s(g10
g8
g9
tp1305
I234
s(g39
g5
g21
tp1306
I7
s(g9
g47
g6
tp1307
I304
s(g6
g6
g9
tp1308
I431
s(g21
g4
g16
tp1309
I451
s(g77
g24
g9
tp1310
I8
s(g40
g24
g16
tp1311
I1160
s(g8
g14
g6
tp1312
I25
s(g9
g39
g47
tp1313
I541
s(g23
g47
g15
tp1314
I44
s(g10
g4
g26
tp1315
I664
s(g10
g26
g9
tp1316
I1
s(g15
g24
g21
tp1317
I2
s(g24
g47
g42
tp1318
I7
s(g21
g8
g36
tp1319
I1
s(g42
g16
g40
tp1320
I1
s(g8
g5
g42
tp1321
I13
s(g14
g42
g23
tp1322
I12
s(g24
g77
g21
tp1323
I6
s(g23
g16
g77
tp1324
I21
s(g4
g4
g24
tp1325
I2
s(g8
g39
g8
tp1326
I3
s(g47
g36
g14
tp1327
I1
s(g24
g4
g21
tp1328
I2268
s(g21
g16
g40
tp1329
I1
s(g10
g31
g16
tp1330
I3
s(g24
g33
g5
tp1331
I3
s(g39
g9
g47
tp1332
I2
s(g14
g8
g14
tp1333
I4
s(g155
g47
g12
tp1334
I2
s(g24
g14
g8
tp1335
I37
s(g10
g47
g18
tp1336
I8
s(g6
g4
g5
tp1337
I23
s(g4
g21
g6
tp1338
I445
s(g9
g77
g31
tp1339
I7
s(g36
g6
g39
tp1340
I1
s(g47
g6
g12
tp1341
I12
s(g31
g26
g42
tp1342
I1
s(g42
g14
g8
tp1343
I1
s(g4
g16
g15
tp1344
I86
s(g4
g18
g9
tp1345
I112
s(g21
g16
g47
tp1346
I823
s(g47
g15
g9
tp1347
I28
s(g9
g42
g4
tp1348
I46
s(g77
g4
g24
tp1349
I1
s(g5
g10
g16
tp1350
I29
s(g36
g21
g16
tp1351
I211
s(g10
g5
g15
tp1352
I3
s(g47
g18
g18
tp1353
I2
s(g4
g16
g21
tp1354
I518
s(g23
g23
g6
tp1355
I13
s(g39
g14
g6
tp1356
I1
s(g23
g47
g67
tp1357
I40
s(g8
g4
g18
tp1358
I48
s(g6
g77
g5
tp1359
I1
s(g12
g16
g155
tp1360
I1
s(g77
g16
g42
tp1361
I23
s(g8
g52
tp1362
I8370
s(g31
g36
g8
tp1363
I46
s(g155
g9
g24
tp1364
I164
s(g47
g21
g31
tp1365
I692
s(g42
g42
g42
tp1366
I3
s(g26
g10
g9
tp1367
I2
s(g16
g15
g4
tp1368
I55
s(g42
g77
g23
tp1369
I1
s(g14
g31
g23
tp1370
I31
s(g9
g14
g26
tp1371
I2
s(g6
g16
g36
tp1372
I24
s(g9
g40
g6
tp1373
I207
s(g5
g26
g8
tp1374
I19
s(g4
g8
g14
tp1375
I43
s(g42
g26
g6
tp1376
I1
s(g9
g77
g6
tp1377
I89
s(g24
g4
g23
tp1378
I4101
s(g9
g77
g77
tp1379
I89
s(g4
g155
g5
tp1380
I1
s(g47
g39
g31
tp1381
I1
s(g18
g47
g16
tp1382
I7
s(g47
g47
g21
tp1383
I256
s(g4
g16
g33
tp1384
I1
s(g5
g47
g5
tp1385
I16
s(g26
g40
g16
tp1386
I1
s(g31
g31
g47
tp1387
I271
s(g4
g24
g6
tp1388
I1
s(g77
g16
g51
tp1389
I19
s(g4
g24
g14
tp1390
I1
s(g47
g18
g8
tp1391
I1
s(g77
g47
g6
tp1392
I476
s(g31
g14
g8
tp1393
I5
s(g47
g5
g18
tp1394
I2
s(g9
g33
g5
tp1395
I11
s(g47
g26
g26
tp1396
I5
s(g5
g6
g24
tp1397
I197
s(g16
g12
g8
tp1398
I17
s(g47
g18
g4
tp1399
I78
s(g42
g40
g4
tp1400
I20
s(g67
g23
g47
tp1401
I71
s(g23
g4
g31
tp1402
I639
s(g42
g12
g21
tp1403
I1
s(g155
g12
g36
tp1404
I4
s(g24
g8
g47
tp1405
I26
s(g9
g51
g16
tp1406
I5
s(g15
g4
g12
tp1407
I287
s(g23
g6
g18
tp1408
I1
s(g14
g8
g47
tp1409
I66
s(g47
g24
g9
tp1410
I41
s(g77
g6
g8
tp1411
I4
s(g15
g24
g9
tp1412
I64
s(g16
g15
g15
tp1413
I63
s(g9
g39
g16
tp1414
I263
s(g47
g21
g14
tp1415
I1089
s(g4
g77
g31
tp1416
I9
s(g21
g16
g6
tp1417
I438
s(g18
g9
g21
tp1418
I46
s(g24
g6
g16
tp1419
I2
s(g10
g16
g23
tp1420
I293
s(g36
g9
g40
tp1421
I4
s(g9
g77
g16
tp1422
I84
s(g31
g9
g24
tp1423
I1
s(g23
g9
g23
tp1424
I52
s(g16
g6
g15
tp1425
I22
s(g15
g4
g23
tp1426
I90
s(g40
g6
g15
tp1427
I10
s(g12
g9
g14
tp1428
I2
s(g8
g23
g24
tp1429
I69
s(g47
g8
g6
tp1430
I247
s(g26
g26
g21
tp1431
I8
s(g47
g40
g9
tp1432
I29
s(g31
g47
g23
tp1433
I145
s(g31
g16
g31
tp1434
I1082
s(g15
g12
g47
tp1435
I17
s(g4
g15
g12
tp1436
I4
s(g16
g12
g4
tp1437
I222
s(g47
g33
g8
tp1438
I1
s(g12
g42
g10
tp1439
I1
s(g9
g47
g10
tp1440
I4
s(g15
g24
g31
tp1441
I1
s(g77
g9
g15
tp1442
I50
s(g42
g77
g36
tp1443
I4
s(g16
g8
g8
tp1444
I1716
s(g31
g4
g36
tp1445
I1
s(g39
g10
g4
tp1446
I1
s(g5
g33
g10
tp1447
I1
s(g15
g15
g9
tp1448
I6
s(g23
g4
g77
tp1449
I6
s(g26
g9
g77
tp1450
I28
s(g47
g67
g47
tp1451
I59
s(g5
g31
g36
tp1452
I40
s(g31
g5
g26
tp1453
I18
s(g8
g6
g26
tp1454
I1
s(g14
g21
g9
tp1455
I4
s(g21
g6
g39
tp1456
I7
s(g6
g6
g47
tp1457
I528
s(g47
g12
g42
tp1458
I219
s(g26
g16
g23
tp1459
I121
s(g39
g16
g26
tp1460
I81
s(g5
g10
g5
tp1461
I7
s(g77
g12
g5
tp1462
I5
s(g47
g6
g33
tp1463
I6
s(g23
g24
g77
tp1464
I25
s(g6
g16
g51
tp1465
I59
s(g15
g47
g77
tp1466
I255
s(g42
g4
g36
tp1467
I1
s(g21
g23
g36
tp1468
I3
s(g10
g16
g15
tp1469
I99
s(g39
g40
g9
tp1470
I1
s(g26
g9
g51
tp1471
I1
s(g155
g5
g18
tp1472
I4
s(g47
g4
g21
tp1473
I1710
s(g14
g8
g26
tp1474
I1
s(g6
g24
g31
tp1475
I6
s(g21
g23
g5
tp1476
I94
s(g26
g39
g16
tp1477
I153
s(g9
g8
g31
tp1478
I6
s(g47
g47
g18
tp1479
I46
s(g77
g4
g155
tp1480
I1
s(g40
g23
g9
tp1481
I7
s(g42
g5
g31
tp1482
I93
s(g16
g18
g18
tp1483
I4
s(g21
g31
g24
tp1484
I4
s(g16
g36
g10
tp1485
I1
s(g6
g24
g14
tp1486
I16
s(g21
g9
g77
tp1487
I211
s(g47
g15
g21
tp1488
I74
s(g42
g47
g36
tp1489
I10
s(g15
g9
g8
tp1490
I91
s(g18
g24
g6
tp1491
I1
s(g14
g39
g47
tp1492
I1
s(g8
g26
g14
tp1493
I1
s(g12
g5
g51
tp1494
I2
s(g4
g24
g5
tp1495
I4
s(g47
g67
g9
tp1496
I9
s(g31
g8
g4
tp1497
I4
s(g36
g4
g26
tp1498
I441
s(g9
g6
g9
tp1499
I55
s(g42
g4
g23
tp1500
I219
s(g4
g23
g5
tp1501
I306
s(g4
g26
g26
tp1502
I251
s(g6
g4
g39
tp1503
I16
s(g12
g47
g47
tp1504
I72
s(g16
g6
g8
tp1505
I44
s(g6
g5
g21
tp1506
I429
s(g6
g8
g8
tp1507
I1
s(g16
g36
g47
tp1508
I203
s(g26
g39
g24
tp1509
I219
s(g16
g21
g26
tp1510
I105
s(g21
g26
g24
tp1511
I290
s(g16
g21
g4
tp1512
I44
s(g5
g26
g5
tp1513
I2
s(g24
g31
g16
tp1514
I55
s(g6
g5
g15
tp1515
I74
s(g16
g23
g5
tp1516
I141
s(g23
g31
g26
tp1517
I1
s(g16
g42
g21
tp1518
I2
s(g9
g6
g8
tp1519
I2
s(g21
g23
g24
tp1520
I338
s(g47
g36
g4
tp1521
I11
s(g36
g5
g51
tp1522
I9
s(g24
g23
g47
tp1523
I153
s(g77
g6
g42
tp1524
I5
s(g6
g36
g67
tp1525
I1
s(g6
g9
g31
tp1526
I757
s(g4
g14
g47
tp1527
I85
s(g155
g36
g47
tp1528
I1
s(g9
g9
g23
tp1529
I225
s(g4
g12
g31
tp1530
I28
s(g40
g6
g39
tp1531
I20
s(g21
g4
g67
tp1532
I3
s(g5
g8
g14
tp1533
I24
s(g31
g4
g24
tp1534
I19
s(g12
g23
g24
tp1535
I3
s(g40
g14
g31
tp1536
I1
s(g21
g77
g31
tp1537
I8
s(g4
g23
g6
tp1538
I104
s(g9
g8
g16
tp1539
I305
s(g51
g9
g9
tp1540
I11
s(g47
g12
g16
tp1541
I112
s(g26
g42
g10
tp1542
I1
s(g18
g47
g31
tp1543
I776
s(g47
g26
g5
tp1544
I94
s(g14
g16
g31
tp1545
I591
s(g8
g23
g47
tp1546
I97
s(g155
g9
g47
tp1547
I35
s(g16
g77
g23
tp1548
I4
s(g77
g10
g9
tp1549
I8
s(g18
g23
g9
tp1550
I1
s(g40
g8
g6
tp1551
I24
s(g21
g36
g5
tp1552
I106
s(g67
g26
g16
tp1553
I38
s(g36
g36
g31
tp1554
I6
s(g42
g16
g4
tp1555
I4
s(g9
g6
g14
tp1556
I3
s(g26
g26
g9
tp1557
I96
s(g36
g6
g6
tp1558
I1
s(g4
g12
g77
tp1559
I2
s(g40
g16
g8
tp1560
I675
s(g16
g5
g26
tp1561
I1
s(g21
g16
g67
tp1562
I3
s(g16
g67
g4
tp1563
I2
s(g21
g10
g47
tp1564
I23
s(g8
g42
g23
tp1565
I13
s(g6
g9
g8
tp1566
I256
s(g10
g14
g21
tp1567
I8
s(g8
g36
g47
tp1568
I7
s(g40
g16
g4
tp1569
I1
s(g26
g16
g10
tp1570
I5
s(g23
g51
g31
tp1571
I2
s(g4
g8
g21
tp1572
I81
s(g26
g5
g77
tp1573
I2
s(g4
g4
g5
tp1574
I1
s(g14
g31
g16
tp1575
I7
s(g47
g14
g16
tp1576
I8
s(g47
g16
g16
tp1577
I1
s(g15
g23
g9
tp1578
I6
s(g21
g39
g6
tp1579
I115
s(g12
g47
g23
tp1580
I615
s(g9
g155
g47
tp1581
I117
s(g33
g16
g31
tp1582
I1
s(g40
g5
g21
tp1583
I2
s(g77
g26
g42
tp1584
I1
s(g40
g31
g8
tp1585
I15
s(g26
g4
g67
tp1586
I1
s(g39
g16
g8
tp1587
I179
s(g42
g47
g67
tp1588
I1
s(g18
g16
g42
tp1589
I11
s(g26
g16
g15
tp1590
I5
s(g23
g77
g47
tp1591
I1
s(g9
g8
g21
tp1592
I1
s(g47
g31
g40
tp1593
I3
s(g16
g26
g6
tp1594
I373
s(g12
g10
g47
tp1595
I460
s(g14
g4
g4
tp1596
I1
s(g6
g23
g6
tp1597
I249
s(g51
g4
g31
tp1598
I5
s(g31
g23
g10
tp1599
I1
s(g9
g15
g4
tp1600
I22
s(g14
g4
g8
tp1601
I24
s(g6
g47
g9
tp1602
I1
s(g9
g8
g18
tp1603
I71
s(g155
g4
g18
tp1604
I1
s(g10
g47
g4
tp1605
I322
s(g12
g10
g8
tp1606
I311
s(g15
g9
g14
tp1607
I36
s(g16
g8
g26
tp1608
I53
s(g266
g67
tp1609
I86
s(g5
g21
g33
tp1610
I8
s(g24
g24
g47
tp1611
I1
s(g9
g18
g4
tp1612
I45
s(g4
g39
g14
tp1613
I6
s(g8
g42
g21
tp1614
I7
s(g5
g40
g47
tp1615
I19
s(g5
g42
g77
tp1616
I10
s(g24
g23
g16
tp1617
I32
s(g36
g12
g67
tp1618
I1
s(g9
g5
g16
tp1619
I9
s(g36
g16
g77
tp1620
I45
s(g77
g21
g9
tp1621
I227
s(g31
g23
g4
tp1622
I464
s(g8
g39
g47
tp1623
I97
s(g5
g12
g6
tp1624
I39
s(g21
g47
g23
tp1625
I432
s(g39
g5
g12
tp1626
I2
s(g8
g26
g9
tp1627
I54
s(g5
g8
g5
tp1628
I17
s(g4
g6
g8
tp1629
I195
s(g9
g6
g47
tp1630
I848
s(g16
g51
g16
tp1631
I48
s(g77
g6
g10
tp1632
I1
s(g26
g5
g12
tp1633
I33
s(g23
g21
g26
tp1634
I2
s(g16
g23
g51
tp1635
I21
s(g4
g8
g12
tp1636
I228
s(g6
g10
g4
tp1637
I11
s(g47
g31
g33
tp1638
I6
s(g47
g24
g16
tp1639
I205
s(g39
g5
g10
tp1640
I5
s(g14
g21
g16
tp1641
I32
s(g9
g51
g9
tp1642
I3
s(g51
g47
g16
tp1643
I1
s(g14
g12
g4
tp1644
I1
s(g16
g15
g12
tp1645
I7
s(g4
g9
g8
tp1646
I2
s(g10
g47
g15
tp1647
I315
s(g5
g14
g16
tp1648
I4
s(g39
g36
g16
tp1649
I2
s(g4
g39
g9
tp1650
I1
s(g51
g9
g6
tp1651
I1
s(g31
g51
g47
tp1652
I7
s(g23
g40
g4
tp1653
I47
s(g266
g18
tp1654
I2166
s(g9
g23
g23
tp1655
I406
s(g6
g14
g12
tp1656
I54
s(g77
g18
g16
tp1657
I23
s(g31
g15
g12
tp1658
I1
s(g8
g4
g10
tp1659
I126
s(g9
g6
g10
tp1660
I2
s(g12
g31
g47
tp1661
I28
s(g21
g33
g5
tp1662
I10
s(g4
g8
g18
tp1663
I14
s(g9
g4
g67
tp1664
I4
s(g9
g39
g5
tp1665
I2
s(g8
g36
g23
tp1666
I8
s(g40
g77
g47
tp1667
I48
s(g23
g4
g40
tp1668
I1
s(g77
g21
g47
tp1669
I378
s(g16
g6
g77
tp1670
I8
s(g8
g4
g12
tp1671
I198
s(g24
g9
g40
tp1672
I822
s(g5
g16
g51
tp1673
I2
s(g77
g4
g12
tp1674
I140
s(g47
g42
g12
tp1675
I1
s(g4
g6
g18
tp1676
I2
s(g24
g16
g10
tp1677
I22
s(g40
g47
g6
tp1678
I57
s(g14
g47
g42
tp1679
I1
s(g6
g40
g21
tp1680
I1
s(g21
g47
g21
tp1681
I68
s(g5
g21
g9
tp1682
I33
s(g4
g51
g31
tp1683
I2
s(g31
g6
g26
tp1684
I43
s(g24
g26
g24
tp1685
I1
s(g40
g51
g4
tp1686
I1
s(g6
g9
g16
tp1687
I4
s(g77
g6
g24
tp1688
I21
s(g26
g4
g47
tp1689
I5
s(g10
g15
g21
tp1690
I1
s(g31
g51
g9
tp1691
I2
s(g31
g36
g4
tp1692
I30
s(g21
g16
g10
tp1693
I201
s(g6
g31
g4
tp1694
I221
s(g16
g23
g36
tp1695
I2
s(g39
g4
g31
tp1696
I28
s(g266
g24
tp1697
I17093
s(g26
g6
g10
tp1698
I2
s(g6
g12
g16
tp1699
I167
s(g24
g26
g4
tp1700
I1
s(g40
g9
g23
tp1701
I1
s(g40
g47
g4
tp1702
I353
s(g12
g36
g16
tp1703
I3
s(g36
g40
g47
tp1704
I3
s(g8
g39
g36
tp1705
I1
s(g23
g4
g12
tp1706
I54
s(g16
g67
g23
tp1707
I51
s(g26
g39
g9
tp1708
I30
s(g39
g52
tp1709
I4129
s(g10
g16
g6
tp1710
I93
s(g12
g10
g5
tp1711
I30
s(g77
g47
g36
tp1712
I171
s(g67
g26
g14
tp1713
I52
s(g266
g39
tp1714
I1973
s(g47
g77
g16
tp1715
I357
s(g9
g31
g155
tp1716
I16
s(g26
g23
g16
tp1717
I714
s(g4
g8
g16
tp1718
I811
s(g18
g9
g14
tp1719
I7
s(g5
g39
g4
tp1720
I3
s(g26
g6
g4
tp1721
I1
s(g5
g21
g47
tp1722
I960
s(g31
g155
g47
tp1723
I13
s(g8
g9
g33
tp1724
I4
s(g47
g42
g39
tp1725
I1
s(g24
g47
g39
tp1726
I6
s(g47
g47
g6
tp1727
I116
s(g18
g16
g15
tp1728
I16
s(g14
g14
g26
tp1729
I1
s(g16
g31
g16
tp1730
I424
s(g266
g47
tp1731
I6057
s(g23
g24
g33
tp1732
I3
s(g23
g40
g24
tp1733
I1
s(g6
g9
g15
tp1734
I4
s(g266
g36
tp1735
I11097
s(g8
g39
g16
tp1736
I107
s(g16
g31
g23
tp1737
I1909
s(g40
g36
g9
tp1738
I2
s(g9
g9
g16
tp1739
I3
s(g21
g40
g21
tp1740
I1
s(g21
g26
g47
tp1741
I228
s(g9
g10
g155
tp1742
I65
s(g47
g10
g5
tp1743
I7
s(g26
g39
g47
tp1744
I466
s(g6
g77
g47
tp1745
I4
s(g47
g31
g12
tp1746
I1
s(g67
g47
g26
tp1747
I42
s(g24
g14
g10
tp1748
I1
s(g9
g23
g9
tp1749
I57
s(g10
g4
g40
tp1750
I5
s(g15
g5
g31
tp1751
I52
s(g8
g9
g21
tp1752
I169
s(g21
g21
g14
tp1753
I1815
s(g4
g77
g12
tp1754
I98
s(g4
g67
g47
tp1755
I14
s(g21
g16
g42
tp1756
I748
s(g16
g47
g12
tp1757
I2
s(g77
g47
g77
tp1758
I631
s(g47
g21
g16
tp1759
I962
s(g23
g26
g9
tp1760
I7
s(g8
g16
g26
tp1761
I742
s(g4
g40
g40
tp1762
I2
s(g5
g18
g12
tp1763
I1
s(g47
g16
g8
tp1764
I39
s(g14
g42
g47
tp1765
I49
s(g47
g31
g31
tp1766
I76
s(g18
g6
g40
tp1767
I1
s(g8
g77
g31
tp1768
I2
s(g39
g8
g16
tp1769
I49
s(g77
g5
g12
tp1770
I151
s(g26
g24
g9
tp1771
I392
s(g18
g16
g4
tp1772
I32
s(g26
g23
g21
tp1773
I122
s(g8
g16
g39
tp1774
I919
s(g47
g67
g8
tp1775
I1
s(g23
g15
g21
tp1776
I2
s(g10
g6
g4
tp1777
I1
s(g31
g15
g23
tp1778
I47
s(g10
g26
g5
tp1779
I1
s(g6
g23
g8
tp1780
I175
s(g16
g47
g26
tp1781
I60
s(g16
g8
g39
tp1782
I67
s(g9
g23
g47
tp1783
I231
s(g23
g15
g9
tp1784
I1
s(g16
g26
g8
tp1785
I59
s(g77
g9
g67
tp1786
I12
s(g47
g31
g51
tp1787
I16
s(g42
g4
g12
tp1788
I1
s(g77
g5
g31
tp1789
I28
s(g77
g14
g4
tp1790
I1
s(g24
g4
g12
tp1791
I222
s(g12
g47
g8
tp1792
I115
s(g31
g15
g36
tp1793
I13
s(g77
g5
g26
tp1794
I297
s(g23
g4
g16
tp1795
I467
s(g10
g16
g77
tp1796
I22
s(g16
g10
g16
tp1797
I70
s(g155
g47
g4
tp1798
I17
s(g15
g9
g4
tp1799
I18
s(g31
g36
g5
tp1800
I59
s(g21
g4
g77
tp1801
I204
s(g36
g4
g31
tp1802
I175
s(g77
g4
g51
tp1803
I9
s(g31
g6
g14
tp1804
I4
s(g16
g21
g47
tp1805
I545
s(g6
g21
g5
tp1806
I3
s(g21
g9
g21
tp1807
I104
s(g24
g36
g21
tp1808
I1
s(g42
g5
g10
tp1809
I117
s(g16
g5
g12
tp1810
I79
s(g77
g5
g77
tp1811
I41
s(g5
g21
g16
tp1812
I251
s(g10
g14
g16
tp1813
I1
s(g21
g15
g10
tp1814
I1
s(g77
g47
g67
tp1815
I18
s(g42
g5
g12
tp1816
I26
s(g31
g9
g15
tp1817
I11
s(g23
g47
g36
tp1818
I17
s(g16
g15
g51
tp1819
I3
s(g4
g18
g14
tp1820
I45
s(g16
g36
g5
tp1821
I62
s(g8
g15
g9
tp1822
I3
s(g18
g47
g12
tp1823
I51
s(g47
g42
g47
tp1824
I193
s(g4
g10
g40
tp1825
I1
s(g26
g8
g16
tp1826
I145
s(g12
g10
g36
tp1827
I1
s(g26
g24
g14
tp1828
I22
s(g4
g31
g39
tp1829
I247
s(g9
g39
g23
tp1830
I2
s(g51
g10
g4
tp1831
I2
s(g21
g23
g47
tp1832
I317
s(g8
g5
g67
tp1833
I6
s(g4
g21
g23
tp1834
I1711
s(g4
g15
g15
tp1835
I82
s(g40
g8
g14
tp1836
I97
s(g77
g31
g16
tp1837
I8
s(g8
g16
g9
tp1838
I87
s(g8
g31
g6
tp1839
I1
s(g24
g23
g36
tp1840
I18
s(g33
g40
g39
tp1841
I1
s(g15
g21
g47
tp1842
I628
s(g31
g9
g36
tp1843
I5
s(g26
g4
g12
tp1844
I338
s(g8
g77
g47
tp1845
I255
s(g23
g14
g4
tp1846
I3
s(g8
g16
g51
tp1847
I172
s(g67
g47
g31
tp1848
I2
s(g15
g16
g15
tp1849
I12
s(g23
g23
g8
tp1850
I604
s(g21
g10
g8
tp1851
I18
s(g16
g15
g42
tp1852
I1
s(g5
g8
g16
tp1853
I41
s(g23
g9
g39
tp1854
I8
s(g4
g31
g47
tp1855
I211
s(g6
g4
g36
tp1856
I72
s(g8
g23
g8
tp1857
I3
s(g47
g16
g4
tp1858
I5
s(g31
g42
g21
tp1859
I11
s(g40
g21
g5
tp1860
I2
s(g39
g31
g47
tp1861
I207
s(g47
g6
g47
tp1862
I476
s(g77
g15
g16
tp1863
I16
s(g5
g10
g77
tp1864
I8
s(g47
g51
g16
tp1865
I14
s(g31
g16
g155
tp1866
I1
s(g10
g23
g40
tp1867
I1
s(g21
g16
g12
tp1868
I149
s(g8
g77
g26
tp1869
I3
s(g16
g6
g6
tp1870
I265
s(g21
g15
g24
tp1871
I3
s(g5
g10
g4
tp1872
I4
s(g9
g23
g16
tp1873
I280
s(g4
g6
g26
tp1874
I35
s(g39
g23
g16
tp1875
I2
s(g24
g47
g26
tp1876
I70
s(g33
g4
g24
tp1877
I1
s(g4
g5
g8
tp1878
I89
s(g16
g77
g6
tp1879
I49
s(g47
g67
g42
tp1880
I466
s(g40
g10
g4
tp1881
I6
s(g8
g47
g36
tp1882
I173
s(g9
g21
g47
tp1883
I1303
s(g6
g24
g5
tp1884
I103
s(g26
g5
g4
tp1885
I2
s(g12
g9
g6
tp1886
I448
s(g15
g10
g9
tp1887
I9
s(g9
g12
g47
tp1888
I1907
s(g10
g23
g16
tp1889
I9
s(g15
g5
g4
tp1890
I115
s(g47
g8
g10
tp1891
I20
s(g39
g6
g42
tp1892
I12
s(g26
g40
g4
tp1893
I1
s(g23
g42
g5
tp1894
I2
s(g8
g5
g6
tp1895
I100
s(g10
g12
g16
tp1896
I10
s(g77
g8
g4
tp1897
I12
s(g39
g16
g33
tp1898
I2
s(g14
g40
g9
tp1899
I4
s(g39
g5
g31
tp1900
I3
s(g6
g15
g47
tp1901
I2
s(g4
g10
g6
tp1902
I130
s(g5
g4
g77
tp1903
I29
s(g47
g16
g15
tp1904
I144
s(g36
g23
g21
tp1905
I2
s(g16
g16
g8
tp1906
I4
s(g10
g9
g31
tp1907
I77
s(g5
g8
g15
tp1908
I18
s(g5
g31
g6
tp1909
I125
s(g14
g26
g9
tp1910
I1
s(g40
g21
g23
tp1911
I2
s(g26
g47
g9
tp1912
I2
s(g10
g14
g47
tp1913
I9
s(g14
g10
g5
tp1914
I1
s(g9
g8
g10
tp1915
I2
s(g31
g26
g26
tp1916
I1
s(g15
g16
g8
tp1917
I54
s(g6
g23
g21
tp1918
I1133
s(g23
g47
g18
tp1919
I69
s(g10
g47
g77
tp1920
I229
s(g8
g4
g16
tp1921
I294
s(g23
g5
g40
tp1922
I3
s(g12
g5
g5
tp1923
I2
s(g26
g9
g6
tp1924
I88
s(g12
g16
g77
tp1925
I117
s(g31
g51
g16
tp1926
I6
s(g31
g47
g14
tp1927
I93
s(g5
g8
g10
tp1928
I11
s(g24
g5
g14
tp1929
I1
s(g39
g9
g8
tp1930
I3
s(g26
g9
g9
tp1931
I111
s(g8
g5
g23
tp1932
I147
s(g5
g51
g16
tp1933
I1
s(g21
g67
g23
tp1934
I1
s(g6
g16
g77
tp1935
I575
s(g36
g77
g12
tp1936
I1
s(g21
g6
g6
tp1937
I3
s(g31
g6
g9
tp1938
I95
s(g40
g16
g36
tp1939
I41
s(g40
g31
g42
tp1940
I1
s(g47
g26
g39
tp1941
I157
s(g42
g26
g10
tp1942
I3
s(g47
g67
g33
tp1943
I3
s(g12
g15
g6
tp1944
I1
s(g16
g42
g16
tp1945
I17
s(g5
g4
g36
tp1946
I2
s(g21
g16
g16
tp1947
I1
s(g21
g47
g77
tp1948
I1454
s(g5
g8
g47
tp1949
I116
s(g12
g9
g4
tp1950
I36
s(g77
g4
g21
tp1951
I353
s(g24
g23
g6
tp1952
I99
s(g42
g9
g5
tp1953
I145
s(g5
g47
g4
tp1954
I24
s(g31
g26
g23
tp1955
I94
s(g21
g77
g40
tp1956
I7
s(g6
g42
g8
tp1957
I85
s(g26
g16
g8
tp1958
I42
s(g21
g14
g10
tp1959
I27
s(g31
g47
g9
tp1960
I22
s(g5
g10
g12
tp1961
I10
s(g12
g12
g4
tp1962
I59
s(g23
g47
g4
tp1963
I420
s(g15
g16
g31
tp1964
I686
s(g40
g47
g77
tp1965
I186
s(g12
g8
g14
tp1966
I34
s(g9
g77
g15
tp1967
I20
s(g6
g16
g26
tp1968
I210
s(g47
g67
g23
tp1969
I388
s(g47
g5
g23
tp1970
I20
s(g77
g51
g47
tp1971
I5
s(g12
g16
g36
tp1972
I3
s(g77
g10
g8
tp1973
I16
s(g36
g21
g47
tp1974
I384
s(g47
g8
g18
tp1975
I143
s(g23
g6
g4
tp1976
I2
s(g18
g14
g40
tp1977
I2
s(g8
g4
g21
tp1978
I621
s(g77
g52
tp1979
I32458
s(g16
g6
g4
tp1980
I84
s(g42
g77
g47
tp1981
I1
s(g155
g16
g18
tp1982
I2
s(g47
g18
g9
tp1983
I77
s(g4
g8
g36
tp1984
I346
s(g40
g23
g40
tp1985
I1
s(g9
g31
g16
tp1986
I279
s(g21
g14
g47
tp1987
I3
s(g4
g42
g42
tp1988
I774
s(g77
g9
g16
tp1989
I101
s(g6
g16
g10
tp1990
I202
s(g77
g16
g77
tp1991
I515
s(g10
g5
g77
tp1992
I18
s(g21
g6
g5
tp1993
I21
s(g24
g47
g31
tp1994
I1417
s(g42
g5
g51
tp1995
I22
s(g14
g47
g6
tp1996
I453
s(g21
g24
g14
tp1997
I23
s(g47
g5
g6
tp1998
I7
s(g9
g5
g23
tp1999
I2298
s(g36
g8
g9
tp2000
I234
s(g4
g21
g26
tp2001
I253
s(g9
g24
g21
tp2002
I2
s(g77
g16
g9
tp2003
I125
s(g14
g12
g31
tp2004
I4
s(g39
g4
g15
tp2005
I14
s(g12
g16
g67
tp2006
I58
s(g16
g8
g21
tp2007
I4
s(g24
g12
g9
tp2008
I1
s(g21
g47
g10
tp2009
I34
s(g67
g4
g31
tp2010
I10
s(g47
g9
g26
tp2011
I3
s(g31
g9
g31
tp2012
I126
s(g26
g47
g26
tp2013
I2
s(g12
g52
tp2014
I4868
s(g26
g47
g14
tp2015
I5
s(g8
g24
g47
tp2016
I10
s(g42
g40
g47
tp2017
I1
s(g21
g77
g14
tp2018
I7
s(g14
g4
g10
tp2019
I1
s(g31
g4
g18
tp2020
I25
s(g5
g9
g5
tp2021
I35
s(g4
g21
g14
tp2022
I474
s(g40
g47
g10
tp2023
I23
s(g47
g18
g47
tp2024
I2294
s(g4
g39
g23
tp2025
I1
s(g14
g8
g23
tp2026
I2
s(g77
g16
g31
tp2027
I921
s(g18
g9
g31
tp2028
I8
s(g10
g16
g42
tp2029
I1
s(g77
g9
g6
tp2030
I28
s(g4
g4
g42
tp2031
I2
s(g42
g16
g31
tp2032
I501
s(g10
g5
g16
tp2033
I77
s(g47
g12
g10
tp2034
I317
s(g4
g77
g155
tp2035
I17
s(g23
g4
g21
tp2036
I614
s(g31
g47
g42
tp2037
I4
s(g18
g21
g9
tp2038
I2
s(g5
g12
g15
tp2039
I1
s(g5
g6
g16
tp2040
I279
s(g26
g39
g15
tp2041
I8
s(g26
g23
g14
tp2042
I1
s(g6
g16
g24
tp2043
I1
s(g4
g5
g15
tp2044
I234
s(g23
g23
g16
tp2045
I324
s(g10
g5
g10
tp2046
I15
s(g42
g24
g47
tp2047
I110
s(g42
g4
g21
tp2048
I672
s(g12
g6
g12
tp2049
I1
s(g9
g5
g21
tp2050
I1719
s(g26
g4
g5
tp2051
I374
s(g42
g5
g42
tp2052
I14
s(g26
g36
g12
tp2053
I1
s(g6
g5
g16
tp2054
I43
s(g12
g10
g10
tp2055
I3
s(g16
g10
g12
tp2056
I81
s(g8
g47
g31
tp2057
I569
s(g77
g77
g6
tp2058
I3
s(g77
g23
g18
tp2059
I1
s(g12
g6
g5
tp2060
I1
s(g47
g12
g4
tp2061
I564
s(g4
g36
g31
tp2062
I2
s(g26
g12
g9
tp2063
I9
s(g21
g21
g21
tp2064
I2
s(g47
g67
g4
tp2065
I180
s(g9
g9
g10
tp2066
I2
s(g21
g4
g6
tp2067
I155
s(g10
g4
g23
tp2068
I146
s(g26
g16
g42
tp2069
I101
s(g31
g77
g26
tp2070
I2
s(g10
g16
g26
tp2071
I26
s(g15
g4
g9
tp2072
I2
s(g23
g6
g12
tp2073
I6
s(g18
g9
g8
tp2074
I173
s(g4
g21
g40
tp2075
I8
s(g14
g12
g42
tp2076
I27
s(g16
g21
g39
tp2077
I13
s(g16
g67
g16
tp2078
I24
s(g15
g31
g6
tp2079
I15
s(g47
g9
g36
tp2080
I3
s(g9
g40
g77
tp2081
I107
s(g47
g4
g18
tp2082
I205
s(g15
g4
g18
tp2083
I118
s(g47
g12
g6
tp2084
I214
s(g6
g8
g9
tp2085
I160
s(g31
g5
g10
tp2086
I2
s(g36
g9
g31
tp2087
I10
s(g16
g12
g9
tp2088
I16
s(g10
g6
g9
tp2089
I52
s(g26
g16
g5
tp2090
I38
s(g21
g4
g21
tp2091
I138
s(g14
g9
g36
tp2092
I3
s(g39
g8
g14
tp2093
I101
s(g266
g40
tp2094
I17834
s(g31
g4
g10
tp2095
I61
s(g21
g40
g16
tp2096
I31
s(g23
g4
g67
tp2097
I27
s(g36
g36
g5
tp2098
I4
s(g26
g24
g31
tp2099
I124
s(g47
g8
g12
tp2100
I88
s(g40
g6
g16
tp2101
I2
s(g31
g40
g47
tp2102
I1
s(g15
g77
g21
tp2103
I1
s(g16
g42
g6
tp2104
I106
s(g5
g12
g9
tp2105
I15
s(g12
g6
g39
tp2106
I6
s(g67
g42
g9
tp2107
I8
s(g42
g8
g14
tp2108
I114
s(g12
g9
g39
tp2109
I43
s(g77
g23
g47
tp2110
I1
s(g24
g10
g77
tp2111
I6
s(g31
g77
g31
tp2112
I34
s(g9
g26
g5
tp2113
I37
s(g24
g14
g21
tp2114
I2
s(g23
g21
g8
tp2115
I2
s(g21
g31
g16
tp2116
I251
s(g14
g4
g16
tp2117
I1
s(g24
g14
g15
tp2118
I3
s(g9
g42
g51
tp2119
I1
s(g39
g15
g21
tp2120
I7
s(g4
g23
g16
tp2121
I2257
s(g155
g4
g26
tp2122
I89
s(g42
g24
g14
tp2123
I150
s(g24
g21
g5
tp2124
I43
s(g23
g6
g39
tp2125
I2
s(g5
g8
g12
tp2126
I2
s(g16
g21
g12
tp2127
I38
s(g23
g24
g12
tp2128
I32
s(g9
g9
g42
tp2129
I103
s(g39
g23
g21
tp2130
I2
s(g36
g9
g8
tp2131
I174
s(g51
g16
g8
tp2132
I11
s(g24
g23
g4
tp2133
I4
s(g23
g5
g9
tp2134
I12
s(g4
g8
g23
tp2135
I164
s(g21
g9
g10
tp2136
I276
s(g42
g6
g24
tp2137
I4
s(g42
g26
g12
tp2138
I1
s(g4
g4
g4
tp2139
I43
s(g4
g15
g18
tp2140
I1
s(g36
g23
g9
tp2141
I2
s(g5
g9
g31
tp2142
I1
s(g24
g36
g5
tp2143
I22
s(g4
g6
g23
tp2144
I1254
s(g9
g6
g12
tp2145
I13
s(g26
g5
g5
tp2146
I11
s(g5
g21
g14
tp2147
I80
s(g47
g16
g10
tp2148
I3
s(g21
g15
g4
tp2149
I89
s(g31
g77
g23
tp2150
I4
s(g47
g12
g12
tp2151
I5
s(g21
g10
g40
tp2152
I1
s(g23
g8
g12
tp2153
I1
s(g21
g14
g12
tp2154
I3
s(g4
g21
g155
tp2155
I1
s(g8
g12
g8
tp2156
I7
s(g26
g26
g77
tp2157
I1
s(g77
g4
g5
tp2158
I22
s(g39
g36
g4
tp2159
I17
s(g47
g155
g4
tp2160
I1
s(g8
g12
g4
tp2161
I8
s(g155
g5
g15
tp2162
I14
s(g42
g9
g12
tp2163
I30
s(g31
g15
g47
tp2164
I682
s(g4
g21
g39
tp2165
I417
s(g23
g31
g4
tp2166
I15
s(g23
g16
g51
tp2167
I27
s(g16
g23
g6
tp2168
I714
s(g266
g15
tp2169
I6496
s(g21
g10
g4
tp2170
I43
s(g21
g36
g36
tp2171
I1
s(g4
g31
g42
tp2172
I2
s(g16
g67
g47
tp2173
I37
s(g12
g4
g21
tp2174
I449
s(g77
g77
g9
tp2175
I1
s(g16
g26
g42
tp2176
I1
s(g26
g42
g26
tp2177
I2
s(g21
g51
g6
tp2178
I1
s(g31
g31
g14
tp2179
I231
s(g47
g42
g14
tp2180
I11
s(g18
g16
g8
tp2181
I152
s(g6
g10
g6
tp2182
I1
s(g4
g15
g42
tp2183
I1
s(g8
g14
g36
tp2184
I1
s(g16
g9
g77
tp2185
I26
s(g9
g26
g14
tp2186
I1
s(g4
g12
g4
tp2187
I113
s(g155
g16
g31
tp2188
I4
s(g5
g24
g16
tp2189
I2
s(g67
g26
g24
tp2190
I28
s(g77
g14
g6
tp2191
I2
s(g14
g31
g47
tp2192
I6
s(g26
g24
g77
tp2193
I4
s(g31
g77
g51
tp2194
I1
s(g31
g39
g4
tp2195
I2
s(g47
g47
g77
tp2196
I385
s(g6
g47
g6
tp2197
I443
s(g15
g15
g47
tp2198
I125
s(g9
g5
g8
tp2199
I1461
s(g39
g42
g4
tp2200
I3
s(g26
g16
g26
tp2201
I5
s(g31
g16
g4
tp2202
I97
s(g6
g39
g16
tp2203
I161
s(g9
g23
g14
tp2204
I4
s(g40
g47
g16
tp2205
I47
s(g155
g5
g42
tp2206
I2
s(g24
g16
g9
tp2207
I19
s(g40
g31
g15
tp2208
I1
s(g9
g31
g23
tp2209
I705
s(g8
g4
g24
tp2210
I2
s(g12
g10
g4
tp2211
I26
s(g40
g21
g9
tp2212
I87
s(g24
g47
g6
tp2213
I647
s(g47
g47
g39
tp2214
I162
s(g42
g15
g4
tp2215
I3
s(g77
g36
g4
tp2216
I3
s(g16
g9
g4
tp2217
I3
s(g24
g4
g16
tp2218
I198
s(g9
g5
g47
tp2219
I13
s(g47
g14
g10
tp2220
I5
s(g18
g47
g21
tp2221
I3357
s(g31
g77
g24
tp2222
I6
s(g26
g9
g42
tp2223
I146
s(g10
g10
g8
tp2224
I54
s(g31
g10
g14
tp2225
I2
s(g9
g18
g47
tp2226
I1414
s(g16
g47
g42
tp2227
I2
s(g10
g14
g23
tp2228
I5
s(g16
g36
g8
tp2229
I23
s(g39
g5
g8
tp2230
I5
s(g31
g23
g47
tp2231
I1023
s(g36
g47
g16
tp2232
I136
s(g14
g47
g31
tp2233
I1
s(g31
g77
g9
tp2234
I274
s(g39
g36
g5
tp2235
I4
s(g10
g9
g5
tp2236
I720
s(g12
g5
g42
tp2237
I2
s(g14
g6
g16
tp2238
I77
s(g12
g4
g14
tp2239
I298
s(g12
g47
g21
tp2240
I546
s(g6
g16
g9
tp2241
I490
s(g39
g16
g21
tp2242
I10
s(g4
g9
g6
tp2243
I9
s(g42
g42
g12
tp2244
I4
s(g31
g23
g24
tp2245
I135
s(g36
g39
g4
tp2246
I1
s(g36
g5
g77
tp2247
I17
s(g5
g6
g42
tp2248
I46
s(g5
g36
g16
tp2249
I4
s(g23
g5
g21
tp2250
I1191
s(g14
g9
g31
tp2251
I177
s(g9
g4
g8
tp2252
I27
s(g51
g47
g47
tp2253
I18
s(g23
g23
g42
tp2254
I13
s(g5
g12
g5
tp2255
I5
s(g8
g4
g14
tp2256
I309
s(g47
g14
g6
tp2257
I74
s(g10
g47
g26
tp2258
I348
s(g4
g21
g33
tp2259
I3
s(g5
g8
g23
tp2260
I295
s(g23
g40
g47
tp2261
I240
s(g9
g23
g42
tp2262
I2
s(g40
g31
g16
tp2263
I22
s(g12
g26
g31
tp2264
I1
s(g4
g51
g51
tp2265
I6
s(g24
g5
g67
tp2266
I2
s(g42
g47
g5
tp2267
I5
s(g36
g23
g42
tp2268
I4
s(g10
g4
g8
tp2269
I161
s(g16
g26
g16
tp2270
I258
s(g47
g155
g9
tp2271
I10
s(g16
g23
g4
tp2272
I294
s(g15
g47
g21
tp2273
I517
s(g47
g4
g31
tp2274
I506
s(g31
g15
g8
tp2275
I269
s(g8
g14
g155
tp2276
I12
s(g23
g21
g4
tp2277
I950
s(g5
g4
g16
tp2278
I4
s(g14
g47
g47
tp2279
I11
s(g67
g9
g31
tp2280
I3
s(g47
g4
g26
tp2281
I458
s(g39
g21
g47
tp2282
I3
s(g77
g14
g16
tp2283
I27
s(g24
g9
g18
tp2284
I29
s(g47
g15
g31
tp2285
I15
s(g6
g6
g36
tp2286
I11
s(g8
g4
g23
tp2287
I669
s(g26
g4
g4
tp2288
I1
s(g16
g15
g9
tp2289
I24
s(g9
g4
g31
tp2290
I54
s(g36
g40
g4
tp2291
I12
s(g6
g31
g47
tp2292
I79
s(g23
g52
tp2293
I24151
s(g18
g47
g67
tp2294
I1
s(g24
g21
g47
tp2295
I283
s(g15
g14
g21
tp2296
I1
s(g12
g18
g10
tp2297
I1
s(g18
g5
g8
tp2298
I7
s(g21
g26
g9
tp2299
I22
s(g6
g26
g14
tp2300
I1
s(g77
g9
g42
tp2301
I8
s(g4
g8
g47
tp2302
I249
s(g8
g36
g21
tp2303
I5
s(g16
g31
g10
tp2304
I3
s(g21
g9
g51
tp2305
I16
s(g42
g23
g4
tp2306
I69
s(g42
g21
g10
tp2307
I1
s(g16
g14
g5
tp2308
I1
s(g9
g31
g36
tp2309
I141
s(g8
g47
g6
tp2310
I892
s(g16
g31
g12
tp2311
I9
s(g18
g4
g12
tp2312
I8
s(g47
g21
g10
tp2313
I57
s(g6
g47
g77
tp2314
I794
s(g4
g40
g16
tp2315
I23
s(g31
g15
g21
tp2316
I94
s(g5
g4
g39
tp2317
I3
s(g47
g39
g39
tp2318
I1
s(g36
g47
g47
tp2319
I587
s(g5
g16
g23
tp2320
I270
s(g31
g6
g4
tp2321
I43
s(g26
g155
g4
tp2322
I1
s(g18
g9
g26
tp2323
I8
s(g26
g4
g15
tp2324
I39
s(g42
g6
g42
tp2325
I1
s(g26
g47
g77
tp2326
I281
s(g42
g47
g31
tp2327
I658
s(g47
g51
g9
tp2328
I1
s(g21
g42
g6
tp2329
I6
s(g10
g4
g6
tp2330
I158
s(g8
g77
g12
tp2331
I1
s(g36
g16
g18
tp2332
I79
s(g4
g14
g23
tp2333
I3
s(g40
g6
g21
tp2334
I2
s(g10
g21
g16
tp2335
I351
s(g9
g42
g77
tp2336
I1
s(g47
g16
g42
tp2337
I2
s(g16
g23
g26
tp2338
I215
s(g42
g4
g26
tp2339
I189
s(g15
g77
g47
tp2340
I2
s(g67
g23
g10
tp2341
I5
s(g16
g31
g24
tp2342
I27
s(g16
g4
g21
tp2343
I106
s(g21
g23
g42
tp2344
I1
s(g8
g16
g15
tp2345
I483
s(g39
g47
g10
tp2346
I1
s(g21
g77
g77
tp2347
I1
s(g21
g16
g23
tp2348
I446
s(g16
g31
g6
tp2349
I863
s(g4
g42
g26
tp2350
I54
s(g23
g14
g16
tp2351
I4
s(g8
g16
g21
tp2352
I5
s(g4
g40
g6
tp2353
I76
s(g10
g9
g10
tp2354
I30
s(g42
g4
g14
tp2355
I47
s(g36
g16
g15
tp2356
I106
s(g5
g67
g5
tp2357
I4
s(g5
g6
g14
tp2358
I33
s(g8
g9
g6
tp2359
I367
s(g36
g4
g77
tp2360
I19
s(g6
g47
g36
tp2361
I20
s(g47
g39
g16
tp2362
I15
s(g4
g5
g40
tp2363
I1
s(g5
g47
g42
tp2364
I1
s(g16
g47
g31
tp2365
I570
s(g47
g23
g21
tp2366
I187
s(g77
g5
g10
tp2367
I1
s(g8
g10
g9
tp2368
I27
s(g23
g10
g36
tp2369
I1
s(g6
g4
g31
tp2370
I243
s(g5
g15
g47
tp2371
I49
s(g9
g47
g67
tp2372
I2
s(g5
g4
g12
tp2373
I3
s(g6
g9
g42
tp2374
I77
s(g15
g24
g10
tp2375
I30
s(g26
g23
g31
tp2376
I2
s(g39
g6
g4
tp2377
I2
s(g67
g14
g12
tp2378
I1
s(g39
g9
g21
tp2379
I3
s(g36
g16
g42
tp2380
I1
s(g14
g39
g23
tp2381
I4
s(g39
g23
g4
tp2382
I11
s(g6
g5
g77
tp2383
I201
s(g4
g21
g21
tp2384
I1924
s(g8
g9
g23
tp2385
I164
s(g47
g23
g5
tp2386
I113
s(g24
g4
g10
tp2387
I39
s(g24
g9
g5
tp2388
I1553
s(g8
g15
g21
tp2389
I2
s(g23
g15
g8
tp2390
I2
s(g51
g4
g21
tp2391
I124
s(g47
g9
g18
tp2392
I8
s(g16
g15
g24
tp2393
I1896
s(g21
g8
g6
tp2394
I60
s(g6
g26
g5
tp2395
I81
s(g9
g9
g6
tp2396
I75
s(g26
g5
g16
tp2397
I14
s(g16
g47
g77
tp2398
I537
s(g5
g31
g39
tp2399
I105
s(g8
g8
g40
tp2400
I9
s(g40
g4
g14
tp2401
I985
s(g15
g9
g12
tp2402
I3
s(g23
g8
g4
tp2403
I84
s(g23
g47
g12
tp2404
I335
s(g15
g5
g16
tp2405
I107
s(g26
g24
g12
tp2406
I22
s(g77
g9
g77
tp2407
I25
s(g5
g16
g4
tp2408
I1
s(g21
g42
g8
tp2409
I39
s(g40
g10
g14
tp2410
I2
s(g42
g4
g40
tp2411
I8
s(g36
g4
g10
tp2412
I7
s(g67
g24
g4
tp2413
I17
s(g23
g77
g9
tp2414
I2
s(g4
g24
g16
tp2415
I2
s(g24
g9
g42
tp2416
I258
s(g4
g23
g23
tp2417
I555
s(g21
g31
g8
tp2418
I1
s(g42
g16
g21
tp2419
I79
s(g47
g47
g16
tp2420
I25
s(g26
g9
g4
tp2421
I50
s(g16
g6
g12
tp2422
I136
s(g9
g26
g42
tp2423
I1
s(g4
g31
g9
tp2424
I342
s(g6
g14
g16
tp2425
I1
s(g39
g15
g5
tp2426
I1
s(g18
g52
tp2427
I49
s(g6
g31
g9
tp2428
I26
s(g42
g21
g5
tp2429
I13
s(g8
g21
g9
tp2430
I6
s(g9
g18
g6
tp2431
I19
s(g31
g23
g42
tp2432
I1
s(g33
g40
g9
tp2433
I1
s(g21
g23
g16
tp2434
I443
s(g26
g9
g40
tp2435
I21
s(g24
g4
g77
tp2436
I1559
s(g24
g9
g6
tp2437
I400
s(g36
g23
g16
tp2438
I24
s(g12
g26
g40
tp2439
I1
s(g42
g5
g8
tp2440
I224
s(g8
g6
g6
tp2441
I1
s(g16
g8
g36
tp2442
I3
s(g77
g9
g31
tp2443
I260
s(g24
g23
g10
tp2444
I4
s(g21
g12
g16
tp2445
I473
s(g8
g8
g14
tp2446
I854
s(g10
g24
g16
tp2447
I1
s(g42
g10
g67
tp2448
I1
s(g5
g31
g12
tp2449
I2
s(g266
g31
tp2450
I5406
s(g39
g31
g16
tp2451
I17
s(g4
g8
g6
tp2452
I309
s(g9
g47
g12
tp2453
I1
s(g23
g14
g8
tp2454
I29
s(g5
g23
g77
tp2455
I4
s(g10
g15
g12
tp2456
I3
s(g15
g10
g47
tp2457
I3
s(g31
g26
g8
tp2458
I220
s(g8
g16
g31
tp2459
I1348
s(g26
g10
g4
tp2460
I3
s(g21
g77
g9
tp2461
I55
s(g4
g23
g21
tp2462
I65
s(g16
g155
g9
tp2463
I2
s(g5
g10
g47
tp2464
I55
s(g42
g16
g23
tp2465
I172
s(g4
g10
g10
tp2466
I158
s(g40
g47
g8
tp2467
I519
s(g47
g6
g4
tp2468
I21
s(g26
g77
g4
tp2469
I3
s(g9
g10
g23
tp2470
I13
s(g21
g23
g18
tp2471
I1
s(g9
g12
g40
tp2472
I1
s(g155
g9
g77
tp2473
I1
s(g5
g8
g24
tp2474
I1
s(g36
g31
g47
tp2475
I7
s(g47
g8
g26
tp2476
I35
s(g15
g5
g6
tp2477
I40
s(g12
g26
g5
tp2478
I1
s(g23
g16
g155
tp2479
I1
s(g21
g10
g10
tp2480
I2
s(g40
g39
g47
tp2481
I30
s(g67
g5
g4
tp2482
I6
s(g16
g40
g16
tp2483
I2
s(g9
g15
g14
tp2484
I95
s(g12
g12
g14
tp2485
I40
s(g4
g6
g14
tp2486
I40
s(g26
g4
g9
tp2487
I8
s(g12
g42
g21
tp2488
I66
s(g4
g31
g14
tp2489
I930
s(g31
g39
g8
tp2490
I63
s(g9
g39
g40
tp2491
I3
s(g9
g21
g16
tp2492
I314
s(g26
g5
g47
tp2493
I9
s(g39
g23
g24
tp2494
I2
s(g4
g5
g12
tp2495
I5
s(g18
g16
g39
tp2496
I1
s(g40
g4
g10
tp2497
I7
s(g8
g5
g40
tp2498
I1
s(g8
g9
g47
tp2499
I9
s(g5
g6
g77
tp2500
I1
s(g47
g36
g23
tp2501
I174
s(g26
g47
g39
tp2502
I1
s(g9
g8
g5
tp2503
I151
s(g39
g16
g12
tp2504
I14
s(g36
g5
g26
tp2505
I26
s(g21
g8
g77
tp2506
I171
s(g6
g24
g23
tp2507
I1
s(g31
g4
g42
tp2508
I200
s(g26
g12
g16
tp2509
I4
s(g23
g5
g6
tp2510
I26
s(g40
g77
g6
tp2511
I3
s(g6
g39
g14
tp2512
I88
s(g23
g21
g5
tp2513
I373
s(g21
g12
g6
tp2514
I159
s(g4
g39
g8
tp2515
I9
s(g6
g9
g47
tp2516
I5
s(g24
g47
g4
tp2517
I1021
s(g26
g36
g21
tp2518
I2
s(g266
g21
tp2519
I7809
s(g40
g4
g26
tp2520
I2
s(g8
g4
g47
tp2521
I1
s(g42
g8
g23
tp2522
I1
s(g23
g9
g47
tp2523
I34
s(g12
g4
g10
tp2524
I7
s(g4
g36
g5
tp2525
I1
s(g16
g51
g9
tp2526
I20
s(g36
g16
g31
tp2527
I731
s(g4
g8
g15
tp2528
I24
s(g14
g21
g6
tp2529
I2
s(g8
g9
g36
tp2530
I4
s(g5
g21
g21
tp2531
I215
s(g16
g39
g14
tp2532
I1
s(g5
g8
g36
tp2533
I15
s(g47
g4
g10
tp2534
I14
s(g21
g52
tp2535
I16408
s(g5
g6
g4
tp2536
I107
s(g9
g24
g6
tp2537
I1
s(g47
g26
g9
tp2538
I431
s(g6
g40
g9
tp2539
I49
s(g21
g47
g9
tp2540
I22
s(g39
g24
g47
tp2541
I1
s(g6
g5
g8
tp2542
I93
s(g4
g77
g33
tp2543
I2
s(g16
g9
g18
tp2544
I1
s(g8
g5
g10
tp2545
I34
s(g16
g77
g16
tp2546
I105
s(g31
g47
g67
tp2547
I205
s(g24
g26
g21
tp2548
I5
s(g31
g12
g4
tp2549
I6
s(g31
g16
g33
tp2550
I29
s(g31
g47
g39
tp2551
I1
s(g12
g12
g47
tp2552
I268
s(g266
g14
tp2553
I4918
s(g12
g9
g47
tp2554
I2
s(g21
g9
g9
tp2555
I532
s(g40
g42
g36
tp2556
I1
s(g21
g42
g15
tp2557
I7
s(g8
g4
g15
tp2558
I30
s(g47
g8
g15
tp2559
I2
s(g21
g5
g77
tp2560
I40
s(g16
g42
g24
tp2561
I15
s(g5
g8
g77
tp2562
I1426
s(g42
g23
g24
tp2563
I10
s(g26
g14
g8
tp2564
I12
s(g26
g16
g12
tp2565
I5
s(g16
g6
g47
tp2566
I472
s(g23
g9
g26
tp2567
I38
s(g5
g10
g8
tp2568
I227
s(g21
g6
g33
tp2569
I1
s(g47
g18
g6
tp2570
I1
s(g14
g9
g14
tp2571
I5
s(g31
g6
g12
tp2572
I21
s(g40
g47
g42
tp2573
I18
s(g8
g26
g21
tp2574
I2
s(g36
g16
g4
tp2575
I8
s(g8
g8
g23
tp2576
I1
s(g47
g6
g39
tp2577
I39
s(g9
g14
g14
tp2578
I1
s(g9
g67
g10
tp2579
I1
s(g9
g4
g26
tp2580
I63
s(g26
g4
g24
tp2581
I1
s(g47
g36
g9
tp2582
I295
s(g8
g23
g5
tp2583
I29
s(g9
g77
g8
tp2584
I9
s(g14
g5
g39
tp2585
I9
s(g42
g5
g23
tp2586
I382
s(g9
g10
g14
tp2587
I3
s(g4
g16
g16
tp2588
I4
s(g23
g4
g36
tp2589
I15
s(g21
g14
g77
tp2590
I5
s(g77
g23
g23
tp2591
I1
s(g47
g6
g9
tp2592
I58
s(g47
g5
g15
tp2593
I2
s(g21
g4
g12
tp2594
I298
s(g21
g42
g23
tp2595
I8
s(g6
g23
g26
tp2596
I5
s(g31
g24
g5
tp2597
I11
s(g16
g77
g4
tp2598
I85
s(g67
g4
g26
tp2599
I55
s(g77
g16
g26
tp2600
I220
s(g9
g42
g21
tp2601
I11
s(g23
g36
g31
tp2602
I1
s(g155
g4
g39
tp2603
I3
s(g23
g23
g5
tp2604
I1
s(g40
g39
g40
tp2605
I6
s(g16
g4
g24
tp2606
I2
s(g6
g5
g18
tp2607
I1
s(g42
g8
g4
tp2608
I767
s(g18
g26
g26
tp2609
I1
s(g47
g18
g16
tp2610
I286
s(g6
g77
g67
tp2611
I1
s(g26
g14
g31
tp2612
I7
s(g4
g39
g16
tp2613
I347
s(g9
g51
g4
tp2614
I4
s(g77
g47
g16
tp2615
I8
s(g23
g36
g6
tp2616
I1
s(g26
g42
g12
tp2617
I2
s(g21
g9
g155
tp2618
I121
s(g16
g12
g16
tp2619
I182
s(g31
g4
g77
tp2620
I53
s(g16
g77
g12
tp2621
I1
s(g77
g16
g10
tp2622
I29
s(g10
g31
g47
tp2623
I2
s(g42
g24
g4
tp2624
I145
s(g266
g16
tp2625
I4709
s(g9
g77
g10
tp2626
I6
s(g31
g42
g4
tp2627
I3
s(g77
g10
g6
tp2628
I2
s(g31
g21
g16
tp2629
I9
s(g15
g4
g8
tp2630
I221
s(g155
g5
g31
tp2631
I24
s(g5
g47
g6
tp2632
I233
s(g77
g16
g12
tp2633
I52
s(g40
g15
g4
tp2634
I1
s(g15
g8
g16
tp2635
I155
s(g47
g24
g14
tp2636
I1
s(g6
g9
g5
tp2637
I277
s(g47
g12
g47
tp2638
I675
s(g15
g4
g6
tp2639
I65
s(g47
g40
g8
tp2640
I5
s(g12
g9
g67
tp2641
I2
s(g39
g47
g14
tp2642
I92
s(g4
g14
g14
tp2643
I1
s(g23
g36
g42
tp2644
I1
s(g10
g4
g42
tp2645
I2
s(g39
g4
g16
tp2646
I4
s(g16
g39
g23
tp2647
I3
s(g16
g10
g10
tp2648
I32
s(g12
g6
g4
tp2649
I2
s(g36
g36
g21
tp2650
I2
s(g14
g6
g12
tp2651
I2
s(g33
g8
g8
tp2652
I1
s(g9
g42
g23
tp2653
I65
s(g9
g14
g9
tp2654
I9
s(g42
g14
g16
tp2655
I7
s(g4
g77
g8
tp2656
I97
s(g6
g52
tp2657
I27568
s(g16
g4
g10
tp2658
I24
s(g10
g9
g16
tp2659
I43
s(g21
g40
g47
tp2660
I13
s(g6
g12
g42
tp2661
I1
s(g21
g5
g24
tp2662
I3
s(g12
g47
g36
tp2663
I3
s(g8
g47
g42
tp2664
I47
s(g15
g40
g21
tp2665
I1
s(g47
g6
g23
tp2666
I1210
s(g18
g21
g16
tp2667
I2
s(g8
g6
g4
tp2668
I3
s(g21
g9
g6
tp2669
I406
s(g6
g47
g67
tp2670
I41
s(g16
g21
g40
tp2671
I14
s(g42
g15
g8
tp2672
I1
s(g6
g12
g9
tp2673
I81
s(g6
g47
g18
tp2674
I191
s(g155
g8
g4
tp2675
I1
s(g9
g31
g8
tp2676
I554
s(g15
g36
g16
tp2677
I2
s(g23
g6
g8
tp2678
I1
s(g47
g23
g10
tp2679
I4
s(g5
g18
g16
tp2680
I2
s(g16
g4
g4
tp2681
I3
s(g26
g9
g10
tp2682
I8
s(g67
g16
g16
tp2683
I8
s(g36
g36
g4
tp2684
I19
s(g39
g47
g31
tp2685
I237
s(g31
g14
g24
tp2686
I15
s(g12
g9
g9
tp2687
I76
s(g42
g47
g16
tp2688
I10
s(g36
g4
g14
tp2689
I3
s(g26
g16
g18
tp2690
I54
s(g6
g12
g14
tp2691
I4
s(g42
g4
g8
tp2692
I101
s(g10
g14
g8
tp2693
I4
s(g14
g40
g24
tp2694
I24
s(g6
g39
g4
tp2695
I6
s(g5
g10
g6
tp2696
I71
s(g47
g6
g6
tp2697
I1770
s(g21
g36
g9
tp2698
I42
s(g77
g14
g12
tp2699
I1
s(g77
g36
g16
tp2700
I4
s(g47
g8
g8
tp2701
I1338
s(g31
g39
g14
tp2702
I2
s(g47
g23
g47
tp2703
I331
s(g24
g4
g4
tp2704
I2
s(g23
g16
g9
tp2705
I2598
s(g4
g67
g40
tp2706
I1
s(g12
g8
g77
tp2707
I1
s(g47
g77
g14
tp2708
I19
s(g24
g31
g4
tp2709
I44
s(g5
g67
g47
tp2710
I1
s(g33
g24
g6
tp2711
I3
s(g16
g12
g12
tp2712
I149
s(g6
g6
g26
tp2713
I2
s(g16
g21
g10
tp2714
I2
s(g16
g42
g12
tp2715
I33
s(g21
g42
g9
tp2716
I77
s(g42
g8
g8
tp2717
I1
s(g12
g47
g24
tp2718
I20
s(g5
g15
g5
tp2719
I8
s(g16
g21
g14
tp2720
I33
s(g4
g6
g42
tp2721
I102
s(g5
g26
g21
tp2722
I6
s(g23
g24
g4
tp2723
I3269
s(g5
g23
g26
tp2724
I33
s(g21
g31
g10
tp2725
I6
s(g4
g12
g18
tp2726
I1
s(g21
g15
g47
tp2727
I541
s(g23
g12
g9
tp2728
I12
s(g10
g52
tp2729
I283
s(g24
g31
g6
tp2730
I35
s(g31
g33
g5
tp2731
I51
s(g5
g8
g8
tp2732
I449
s(g21
g10
g6
tp2733
I4
s(g24
g12
g47
tp2734
I56
s(g31
g5
g15
tp2735
I3
s(g6
g5
g23
tp2736
I2
s(g4
g12
g9
tp2737
I199
s(g67
g26
g4
tp2738
I1
s(g36
g4
g40
tp2739
I32
s(g8
g18
g21
tp2740
I1
s(g14
g77
g16
tp2741
I1
s(g21
g8
g47
tp2742
I74
s(g40
g12
g4
tp2743
I5
s(g8
g12
g47
tp2744
I15
s(g12
g10
g21
tp2745
I67
s(g31
g9
g42
tp2746
I27
s(g4
g31
g23
tp2747
I1254
s(g5
g8
g9
tp2748
I31
s(g9
g26
g26
tp2749
I69
s(g31
g155
g5
tp2750
I15
s(g31
g10
g8
tp2751
I2
s(g10
g10
g14
tp2752
I162
s(g6
g47
g21
tp2753
I474
s(g21
g14
g8
tp2754
I6
s(g42
g23
g9
tp2755
I39
s(g42
g47
g10
tp2756
I2
s(g16
g21
g77
tp2757
I117
s(g77
g42
g5
tp2758
I2
s(g8
g47
g14
tp2759
I921
s(g24
g24
g24
tp2760
I97
s(g31
g15
g77
tp2761
I3
s(g16
g23
g42
tp2762
I1
s(g42
g16
g10
tp2763
I2
s(g47
g9
g6
tp2764
I7
s(g36
g6
g23
tp2765
I1
s(g8
g14
g10
tp2766
I1
s(g6
g42
g6
tp2767
I7
s(g31
g39
g47
tp2768
I60
s(g9
g47
g23
tp2769
I30
s(g4
g12
g47
tp2770
I1267
s(g31
g26
g39
tp2771
I28
s(g18
g40
g4
tp2772
I1
s(g24
g16
g6
tp2773
I3692
s(g14
g31
g4
tp2774
I17
s(g24
g31
g5
tp2775
I1
s(g10
g47
g8
tp2776
I352
s(g16
g6
g42
tp2777
I131
s(g21
g14
g9
tp2778
I113
s(g23
g9
g12
tp2779
I241
s(g4
g10
g4
tp2780
I40
s(g36
g40
g16
tp2781
I1
s(g155
g5
g23
tp2782
I1
s(g21
g16
g31
tp2783
I1261
s(g31
g10
g5
tp2784
I10
s(g42
g9
g26
tp2785
I35
s(g4
g4
g23
tp2786
I3
s(g36
g5
g36
tp2787
I1
s(g155
g9
g26
tp2788
I3
s(g31
g6
g42
tp2789
I44
s(g26
g16
g51
tp2790
I7
s(g42
g6
g4
tp2791
I3
s(g31
g39
g36
tp2792
I4
s(g9
g31
g42
tp2793
I2
s(g4
g21
g12
tp2794
I366
s(g8
g16
g47
tp2795
I418
s(g21
g36
g6
tp2796
I9
s(g40
g16
g31
tp2797
I580
s(g12
g47
g6
tp2798
I473
s(g9
g40
g31
tp2799
I964
s(g14
g15
g31
tp2800
I1
s(g5
g24
g36
tp2801
I2
s(g16
g39
g6
tp2802
I14
s(g47
g40
g77
tp2803
I6
s(g4
g36
g12
tp2804
I1
s(g24
g16
g23
tp2805
I294
s(g51
g4
g39
tp2806
I3
s(g4
g12
g21
tp2807
I11
s(g40
g16
g26
tp2808
I61
s(g23
g51
g8
tp2809
I1
s(g77
g47
g4
tp2810
I471
s(g15
g31
g12
tp2811
I2
s(g39
g9
g36
tp2812
I16
s(g16
g8
g14
tp2813
I271
s(g10
g18
g4
tp2814
I1
s(g9
g15
g77
tp2815
I2
s(g6
g33
g5
tp2816
I262
s(g31
g77
g39
tp2817
I5
s(g23
g12
g26
tp2818
I1
s(g42
g16
g77
tp2819
I113
s(g23
g16
g6
tp2820
I208
s(g6
g4
g4
tp2821
I5
s(g31
g23
g8
tp2822
I260
s(g4
g10
g21
tp2823
I15
s(g40
g26
g4
tp2824
I5
s(g14
g26
g8
tp2825
I31
s(g31
g77
g18
tp2826
I2
s(g9
g40
g12
tp2827
I6
s(g26
g47
g8
tp2828
I109
s(g39
g16
g31
tp2829
I1299
s(g5
g6
g23
tp2830
I1188
s(g18
g16
g21
tp2831
I48
s(g21
g67
g47
tp2832
I4
s(g9
g8
g47
tp2833
I337
s(g31
g26
g36
tp2834
I1
s(g21
g51
g47
tp2835
I1
s(g42
g6
g39
tp2836
I2
s(g12
g6
g14
tp2837
I3
s(g4
g10
g15
tp2838
I1
s(g24
g47
g36
tp2839
I3
s(g26
g24
g16
tp2840
I643
s(g16
g26
g5
tp2841
I143
s(g24
g9
g4
tp2842
I20
s(g24
g5
g47
tp2843
I1
s(g8
g40
g4
tp2844
I253
s(g9
g4
g42
tp2845
I3
s(g6
g23
g5
tp2846
I344
s(g51
g47
g4
tp2847
I9
s(g10
g77
g4
tp2848
I1
s(g8
g4
g5
tp2849
I175
s(g31
g23
g39
tp2850
I1
s(g39
g9
g39
tp2851
I1
s(g8
g9
g18
tp2852
I158
s(g39
g47
g36
tp2853
I1
s(g4
g26
g5
tp2854
I38
s(g23
g9
g40
tp2855
I269
s(g39
g14
g77
tp2856
I1
s(g39
g8
g5
tp2857
I2
s(g155
g47
g8
tp2858
I14
s(g15
g47
g31
tp2859
I356
s(g6
g4
g18
tp2860
I235
s(g12
g23
g10
tp2861
I2
s(g9
g4
g10
tp2862
I1
s(g47
g42
g5
tp2863
I51
s(g77
g15
g14
tp2864
I4
s(g6
g8
g4
tp2865
I166
s(g23
g12
g47
tp2866
I60
s(g24
g10
g9
tp2867
I12
s(g8
g77
g6
tp2868
I56
s(g16
g23
g9
tp2869
I107
s(g9
g12
g39
tp2870
I2
s(g36
g47
g15
tp2871
I2
s(g6
g12
g4
tp2872
I233
s(g77
g39
g47
tp2873
I5
s(g24
g5
g15
tp2874
I68
s(g23
g21
g47
tp2875
I473
s(g8
g36
g6
tp2876
I3
s(g266
g9
tp2877
I7072
s(g26
g8
g26
tp2878
I1
s(g47
g4
g15
tp2879
I59
s(g21
g47
g51
tp2880
I1
s(g15
g40
g9
tp2881
I3
s(g6
g23
g40
tp2882
I4
s(g10
g4
g10
tp2883
I147
s(g67
g26
g39
tp2884
I7
s(g47
g42
g31
tp2885
I1
s(g14
g155
g4
tp2886
I2
s(g8
g4
g40
tp2887
I312
s(g15
g42
g9
tp2888
I1
s(g21
g5
g23
tp2889
I71
s(g5
g16
g6
tp2890
I71
s(g24
g47
g24
tp2891
I5
s(g40
g9
g39
tp2892
I24
s(g4
g51
g9
tp2893
I4
s(g6
g6
g21
tp2894
I12
s(g77
g4
g26
tp2895
I5
s(g6
g47
g24
tp2896
I7
s(g21
g24
g47
tp2897
I27
s(g9
g21
g5
tp2898
I23
s(g42
g42
g6
tp2899
I48
s(g26
g6
g16
tp2900
I1
s(g51
g16
g15
tp2901
I4
s(g23
g9
g10
tp2902
I21
s(g26
g47
g18
tp2903
I7
s(g14
g51
g4
tp2904
I2
s(g47
g4
g77
tp2905
I1127
s(g31
g42
g10
tp2906
I1
s(g23
g24
g14
tp2907
I70
s(g77
g21
g6
tp2908
I1
s(g15
g15
g21
tp2909
I2
s(g21
g8
g5
tp2910
I1
s(g23
g23
g36
tp2911
I2
s(g18
g16
g18
tp2912
I39
s(g67
g24
g16
tp2913
I10
s(g42
g6
g6
tp2914
I2
s(g39
g4
g77
tp2915
I2
s(g6
g4
g42
tp2916
I42
s(g6
g15
g5
tp2917
I15
s(g5
g16
g42
tp2918
I36
s(g4
g40
g47
tp2919
I32
s(g5
g47
g31
tp2920
I88
s(g6
g40
g4
tp2921
I64
s(g6
g36
g5
tp2922
I14
s(g9
g10
g10
tp2923
I191
s(g5
g21
g12
tp2924
I24
s(g31
g5
g9
tp2925
I10
s(g47
g42
g6
tp2926
I122
s(g26
g9
g16
tp2927
I36
s(g31
g47
g15
tp2928
I29
s(g16
g31
g4
tp2929
I646
s(g5
g9
g21
tp2930
I7
s(g23
g4
g10
tp2931
I280
s(g6
g23
g10
tp2932
I3
s(g26
g4
g26
tp2933
I16
s(g4
g21
g67
tp2934
I21
s(g16
g31
g8
tp2935
I59
s(g47
g21
g4
tp2936
I670
s(g6
g47
g47
tp2937
I941
s(g18
g4
g14
tp2938
I1
s(g24
g16
g47
tp2939
I89
s(g23
g4
g39
tp2940
I476
s(g31
g47
g16
tp2941
I45
s(g16
g23
g24
tp2942
I2560
s(g6
g15
g21
tp2943
I17
s(g47
g16
g23
tp2944
I94
s(g23
g24
g42
tp2945
I1
s(g5
g15
g10
tp2946
I1
s(g23
g9
g6
tp2947
I32
s(g16
g31
g40
tp2948
I8
s(g47
g23
g40
tp2949
I146
s(g24
g10
g14
tp2950
I1
s(g47
g10
g23
tp2951
I2
s(g10
g40
g4
tp2952
I1
s(g77
g21
g16
tp2953
I234
s(g16
g47
g10
tp2954
I1
s(g6
g6
g23
tp2955
I8
s(g10
g21
g5
tp2956
I60
s(g9
g18
g9
tp2957
I15
s(g16
g6
g24
tp2958
I644
s(g23
g36
g4
tp2959
I1
s(g39
g24
g21
tp2960
I1
s(g31
g16
g12
tp2961
I76
s(g26
g18
g6
tp2962
I1
s(g155
g5
g8
tp2963
I15
s(g21
g77
g47
tp2964
I260
s(g8
g40
g16
tp2965
I1
s(g266
g6
tp2966
I22509
s(g4
g40
g9
tp2967
I3
s(g24
g16
g36
tp2968
I27
s(g47
g9
g8
tp2969
I17
s(g23
g24
g40
tp2970
I12
s(g9
g36
g47
tp2971
I216
s(g8
g6
g24
tp2972
I3
s(g5
g16
g18
tp2973
I21
s(g16
g12
g77
tp2974
I1
s(g9
g51
g51
tp2975
I2
s(g8
g16
g36
tp2976
I264
s(g39
g4
g10
tp2977
I20
s(g26
g10
g16
tp2978
I2
s(g47
g23
g18
tp2979
I1
s(g77
g5
g36
tp2980
I1
s(g26
g24
g40
tp2981
I8
s(g18
g9
g23
tp2982
I28
s(g26
g21
g5
tp2983
I74
s(g4
g10
g14
tp2984
I53
s(g21
g16
g36
tp2985
I120
s(g23
g4
g4
tp2986
I2
s(g16
g10
g4
tp2987
I4
s(g31
g18
g14
tp2988
I3
s(g8
g77
g9
tp2989
I16
s(g4
g14
g21
tp2990
I1
s(g23
g10
g21
tp2991
I5
s(g24
g5
g39
tp2992
I1
s(g4
g9
g15
tp2993
I1
s(g40
g77
g14
tp2994
I1
s(g15
g51
g4
tp2995
I3
s(g31
g15
g40
tp2996
I5
s(g42
g4
g47
tp2997
I22
s(g26
g39
g6
tp2998
I400
s(g47
g8
g5
tp2999
I10
s(g47
g23
g14
tp3000
I107
s(g8
g47
g5
tp3001
I17
s(g15
g24
g4
tp3002
I9
s(g47
g31
g24
tp3003
I30
s(g12
g42
g39
tp3004
I8
s(g9
g8
g12
tp3005
I7
s(g15
g6
g51
tp3006
I1
s(g21
g24
g16
tp3007
I4
s(g31
g16
g39
tp3008
I2
s(g21
g9
g26
tp3009
I174
s(g23
g39
g31
tp3010
I1
s(g4
g15
g24
tp3011
I3
s(g51
g9
g42
tp3012
I1
s(g47
g15
g5
tp3013
I55
s(g16
g12
g36
tp3014
I1
s(g12
g47
g39
tp3015
I5
s(g39
g4
g40
tp3016
I3
s(g23
g8
g47
tp3017
I915
s(g23
g47
g33
tp3018
I27
s(g24
g9
g23
tp3019
I235
s(g5
g77
g21
tp3020
I3
s(g23
g10
g77
tp3021
I1
s(g18
g47
g10
tp3022
I1
s(g6
g36
g16
tp3023
I28
s(g5
g15
g15
tp3024
I158
s(g40
g42
g5
tp3025
I2
s(g16
g26
g31
tp3026
I2
s(g77
g9
g51
tp3027
I29
s(g26
g26
g26
tp3028
I1
s(g26
g23
g8
tp3029
I117
s(g21
g26
g16
tp3030
I42
s(g15
g40
g4
tp3031
I78
s(g12
g5
g4
tp3032
I4
s(g9
g12
g14
tp3033
I14
s(g51
g47
g8
tp3034
I10
s(g39
g4
g8
tp3035
I16
s(g4
g23
g24
tp3036
I978
s(g5
g67
g8
tp3037
I2
s(g47
g21
g24
tp3038
I90
s(g12
g21
g47
tp3039
I1
s(g155
g4
g77
tp3040
I1
s(g12
g4
g155
tp3041
I54
s(g4
g24
g24
tp3042
I5
s(g36
g31
g15
tp3043
I1
s(g4
g8
g9
tp3044
I223
s(g21
g31
g12
tp3045
I39
s(g12
g42
g23
tp3046
I140
s(g8
g14
g31
tp3047
I14
s(g14
g42
g16
tp3048
I16
s(g47
g31
g10
tp3049
I53
s(g14
g9
g21
tp3050
I33
s(g8
g77
g10
tp3051
I2
s(g42
g15
g6
tp3052
I2
s(g9
g42
g9
tp3053
I60
s(g4
g18
g4
tp3054
I259
s(g21
g12
g47
tp3055
I126
s(g51
g9
g16
tp3056
I1
s(g24
g5
g23
tp3057
I86
s(g26
g5
g21
tp3058
I229
s(g31
g23
g6
tp3059
I473
s(g9
g21
g39
tp3060
I417
s(g18
g4
g26
tp3061
I44
s(g47
g36
g21
tp3062
I13
s(g10
g8
g5
tp3063
I134
s(g39
g12
g47
tp3064
I17
s(g9
g36
g16
tp3065
I7
s(g42
g5
g39
tp3066
I1
s(g16
g21
g18
tp3067
I5
s(g47
g31
g26
tp3068
I883
s(g21
g4
g26
tp3069
I432
s(g26
g26
g47
tp3070
I162
s(g8
g8
g12
tp3071
I4
s(g24
g31
g31
tp3072
I24
s(g31
g6
g5
tp3073
I90
s(g5
g42
g5
tp3074
I2
s(g23
g14
g39
tp3075
I1
s(g21
g12
g36
tp3076
I3
s(g4
g23
g36
tp3077
I17
s(g9
g23
g4
tp3078
I89
s(g36
g21
g23
tp3079
I1
s(g36
g8
g4
tp3080
I227
s(g21
g14
g16
tp3081
I200
s(g67
g9
g21
tp3082
I4
s(g24
g42
g47
tp3083
I1
s(g23
g9
g51
tp3084
I2
s(g8
g14
g14
tp3085
I1
s(g21
g4
g10
tp3086
I241
s(g47
g9
g15
tp3087
I2
s(g26
g6
g23
tp3088
I7
s(g14
g36
g36
tp3089
I89
s(g18
g4
g23
tp3090
I120
s(g26
g4
g39
tp3091
I14
s(g23
g23
g31
tp3092
I17
s(g47
g31
g77
tp3093
I842
s(g77
g42
g47
tp3094
I1
s(g26
g18
g4
tp3095
I2
s(g24
g23
g23
tp3096
I13
s(g36
g21
g14
tp3097
I9
s(g8
g6
g9
tp3098
I199
s(g4
g51
g14
tp3099
I20
s(g16
g155
g16
tp3100
I1
s(g21
g6
g14
tp3101
I4
s(g67
g23
g5
tp3102
I23
s(g4
g36
g16
tp3103
I2
s(g155
g6
g23
tp3104
I1
s(g14
g21
g4
tp3105
I11
s(g12
g16
g9
tp3106
I291
s(g12
g5
g12
tp3107
I50
s(g12
g9
g21
tp3108
I861
s(g39
g47
g6
tp3109
I246
s(g24
g23
g12
tp3110
I16
s(g6
g8
g5
tp3111
I41
s(g4
g6
g47
tp3112
I395
s(g4
g5
g31
tp3113
I59
s(g155
g24
g9
tp3114
I1
s(g12
g23
g6
tp3115
I1
s(g21
g36
g21
tp3116
I2
s(g4
g39
g4
tp3117
I6
s(g77
g155
g9
tp3118
I4
s(g5
g6
g47
tp3119
I1174
s(g18
g8
g16
tp3120
I1
s(g16
g77
g47
tp3121
I1297
s(g51
g31
g47
tp3122
I3
s(g12
g42
g14
tp3123
I6
s(g40
g47
g18
tp3124
I95
s(g18
g4
g21
tp3125
I100
s(g4
g4
g26
tp3126
I6
s(g77
g16
g5
tp3127
I40
s(g14
g47
g12
tp3128
I1
s(g5
g23
g40
tp3129
I3
s(g21
g23
g8
tp3130
I149
s(g40
g4
g77
tp3131
I13
s(g15
g8
g4
tp3132
I301
s(g39
g16
g6
tp3133
I44
s(g21
g15
g8
tp3134
I8
s(g23
g16
g26
tp3135
I1273
s(g9
g39
g14
tp3136
I6
s(g8
g9
g15
tp3137
I243
s(g8
g5
g36
tp3138
I5
s(g4
g6
g9
tp3139
I152
s(g36
g9
g15
tp3140
I9
s(g67
g23
g6
tp3141
I8
s(g31
g12
g47
tp3142
I55
s(g67
g8
g47
tp3143
I4
s(g8
g15
g47
tp3144
I31
s(g24
g47
g18
tp3145
I6
s(g16
g15
g8
tp3146
I3
s(g12
g9
g16
tp3147
I5
s(g4
g6
g16
tp3148
I218
s(g9
g4
g12
tp3149
I12
s(g47
g5
g47
tp3150
I3
s(g8
g4
g51
tp3151
I40
s(g16
g39
g47
tp3152
I1078
s(g18
g42
g18
tp3153
I1
s(g31
g47
g40
tp3154
I620
s(g12
g77
g47
tp3155
I2
s(g23
g6
g23
tp3156
I32
s(g36
g9
g10
tp3157
I1
s(g9
g77
g9
tp3158
I45
s(g36
g47
g21
tp3159
I445
s(g6
g42
g9
tp3160
I250
s(g26
g9
g12
tp3161
I1525
s(g47
g6
g8
tp3162
I6
s(g31
g31
g16
tp3163
I206
s(g14
g21
g5
tp3164
I4
s(g40
g42
g47
tp3165
I1
s(g24
g4
g42
tp3166
I367
s(g23
g9
g18
tp3167
I6
s(g23
g47
g14
tp3168
I5
s(g31
g21
g9
tp3169
I7
s(g21
g47
g33
tp3170
I78
s(g31
g18
g47
tp3171
I148
s(g10
g5
g8
tp3172
I76
s(g4
g16
g12
tp3173
I81
s(g6
g42
g31
tp3174
I1
s(g15
g4
g10
tp3175
I9
s(g26
g4
g77
tp3176
I33
s(g26
g16
g31
tp3177
I197
s(g47
g15
g12
tp3178
I1
s(g21
g9
g12
tp3179
I1348
s(g15
g16
g4
tp3180
I72
s(g47
g21
g5
tp3181
I15
s(g21
g47
g155
tp3182
I25
s(g6
g23
g18
tp3183
I2
s(g9
g77
g47
tp3184
I215
s(g6
g24
g16
tp3185
I378
s(g5
g12
g10
tp3186
I354
s(g47
g5
g21
tp3187
I40
s(g15
g4
g16
tp3188
I439
s(g12
g42
g47
tp3189
I191
s(g42
g18
g26
tp3190
I1
s(g4
g16
g42
tp3191
I1
s(g9
g5
g5
tp3192
I2
s(g4
g31
g18
tp3193
I2
s(g21
g77
g26
tp3194
I1
s(g24
g47
g67
tp3195
I21
s(g14
g23
g24
tp3196
I394
s(g15
g4
g42
tp3197
I22
s(g39
g10
g5
tp3198
I2
s(g9
g14
g47
tp3199
I36
s(g51
g47
g23
tp3200
I1
s(g31
g14
g12
tp3201
I24
s(g31
g42
g8
tp3202
I25
s(g10
g10
g6
tp3203
I128
s(g23
g23
g4
tp3204
I123
s(g36
g47
g14
tp3205
I4
s(g9
g31
g15
tp3206
I772
s(g4
g67
g8
tp3207
I1
s(g6
g42
g47
tp3208
I672
s(g47
g47
g23
tp3209
I324
s(g23
g36
g9
tp3210
I19
s(g47
g77
g31
tp3211
I9
s(g4
g8
g24
tp3212
I2
s(g15
g15
g6
tp3213
I40
s(g47
g21
g42
tp3214
I84
s(g47
g40
g6
tp3215
I105
s(g5
g31
g155
tp3216
I1
s(g16
g14
g4
tp3217
I4
s(g9
g24
g42
tp3218
I1
s(g42
g16
g9
tp3219
I18
s(g51
g10
g9
tp3220
I18
s(g6
g42
g14
tp3221
I8
s(g24
g12
g12
tp3222
I2
s(g77
g16
g67
tp3223
I2
s(g42
g4
g155
tp3224
I2
s(g26
g47
g47
tp3225
I45
s(g9
g5
g51
tp3226
I5
s(g6
g23
g4
tp3227
I1584
s(g31
g31
g31
tp3228
I18
s(g5
g26
g9
tp3229
I1
s(g39
g6
g24
tp3230
I10
s(g12
g4
g16
tp3231
I221
s(g77
g16
g4
tp3232
I255
s(g23
g36
g8
tp3233
I4
s(g6
g5
g4
tp3234
I121
s(g4
g15
g8
tp3235
I24
s(g42
g14
g23
tp3236
I7
s(g24
g14
g4
tp3237
I2
s(g77
g36
g9
tp3238
I5
s(g4
g24
g31
tp3239
I2
s(g47
g77
g6
tp3240
I80
s(g5
g26
g77
tp3241
I1
s(g36
g8
g14
tp3242
I108
s(g40
g155
g9
tp3243
I5
s(g31
g6
g18
tp3244
I1
s(g67
g47
g14
tp3245
I1
s(g77
g9
g5
tp3246
I108
s(g21
g26
g21
tp3247
I17
s(g23
g9
g21
tp3248
I780
s(g4
g8
g10
tp3249
I33
s(g18
g47
g40
tp3250
I4
s(g10
g9
g47
tp3251
I2
s(g9
g31
g47
tp3252
I2485
s(g15
g4
g15
tp3253
I28
s(g39
g31
g9
tp3254
I700
s(g47
g40
g12
tp3255
I3
s(g23
g4
g42
tp3256
I90
s(g14
g21
g31
tp3257
I4
s(g16
g9
g42
tp3258
I3
s(g8
g18
g16
tp3259
I25
s(g47
g6
g42
tp3260
I225
s(g14
g16
g47
tp3261
I7
s(g15
g4
g31
tp3262
I318
s(g24
g16
g18
tp3263
I34
s(g77
g10
g5
tp3264
I2
s(g5
g24
g8
tp3265
I3
s(g10
g10
g4
tp3266
I11
s(g18
g47
g4
tp3267
I33
s(g15
g24
g8
tp3268
I35
s(g16
g8
g31
tp3269
I1
s(g47
g4
g6
tp3270
I1007
s(g47
g23
g36
tp3271
I5
s(g39
g23
g9
tp3272
I4
s(g10
g9
g40
tp3273
I93
s(g26
g4
g6
tp3274
I307
s(g4
g14
g40
tp3275
I5
s(g31
g16
g67
tp3276
I18
s(g67
g14
g8
tp3277
I1
s(g47
g67
g26
tp3278
I223
s(g12
g14
g47
tp3279
I2
s(g24
g4
g8
tp3280
I381
s(g26
g16
g21
tp3281
I76
s(g5
g15
g21
tp3282
I1
s(g15
g9
g10
tp3283
I4
s(g67
g42
g8
tp3284
I122
s(g14
g26
g4
tp3285
I3
s(g47
g4
g42
tp3286
I110
s(g36
g4
g12
tp3287
I101
s(g15
g47
g10
tp3288
I17
s(g77
g6
g23
tp3289
I19
s(g47
g23
g16
tp3290
I316
s(g26
g39
g23
tp3291
I21
s(g26
g10
g18
tp3292
I1
s(g12
g47
g77
tp3293
I560
s(g21
g26
g23
tp3294
I2
s(g4
g47
g8
tp3295
I23
s(g42
g5
g24
tp3296
I1
s(g24
g21
g12
tp3297
I2
s(g8
g8
g18
tp3298
I2
s(g40
g6
g9
tp3299
I1
s(g9
g36
g5
tp3300
I2
s(g10
g47
g21
tp3301
I943
s(g21
g9
g33
tp3302
I6
s(g31
g15
g10
tp3303
I12
s(g47
g39
g77
tp3304
I1
s(g47
g16
g155
tp3305
I1
s(g12
g5
g67
tp3306
I1
s(g77
g47
g40
tp3307
I22
s(g6
g4
g16
tp3308
I2011
s(g16
g21
g31
tp3309
I6
s(g6
g36
g14
tp3310
I3
s(g8
g42
g24
tp3311
I56
s(g21
g77
g21
tp3312
I11
s(g5
g23
g9
tp3313
I69
s(g21
g4
g40
tp3314
I142
s(g16
g42
g8
tp3315
I676
s(g31
g16
g18
tp3316
I107
s(g4
g23
g9
tp3317
I181
s(g4
g26
g12
tp3318
I4
s(g47
g15
g24
tp3319
I2
s(g26
g15
g16
tp3320
I1
s(g24
g23
g14
tp3321
I17
s(g4
g15
g5
tp3322
I46
s(g40
g31
g47
tp3323
I42
s(g5
g26
g6
tp3324
I3
s(g23
g24
g8
tp3325
I34
s(g24
g4
g15
tp3326
I166
s(g23
g16
g12
tp3327
I773
s(g47
g36
g26
tp3328
I2
s(g15
g9
g77
tp3329
I127
s(g6
g16
g33
tp3330
I2
s(g8
g47
g26
tp3331
I264
s(g23
g77
g12
tp3332
I1
s(g5
g26
g24
tp3333
I614
s(g8
g12
g16
tp3334
I14
s(g36
g4
g39
tp3335
I3
s(g24
g16
g21
tp3336
I118
s(g26
g4
g8
tp3337
I993
s(g31
g5
g36
tp3338
I8
s(g26
g51
g47
tp3339
I2
s(g23
g5
g12
tp3340
I42
s(g21
g10
g16
tp3341
I36
s(g9
g155
g16
tp3342
I3
s(g21
g4
g18
tp3343
I138
s(g47
g24
g47
tp3344
I56
s(g23
g47
g31
tp3345
I908
s(g10
g6
g47
tp3346
I43
s(g16
g5
g21
tp3347
I7
s(g31
g40
g16
tp3348
I8
s(g155
g155
g4
tp3349
I1
s(g31
g26
g9
tp3350
I165
s(g77
g26
g4
tp3351
I77
s(g5
g8
g31
tp3352
I7
s(g18
g16
g23
tp3353
I130
s(g9
g10
g9
tp3354
I59
s(g4
g31
g10
tp3355
I12
s(g77
g77
g8
tp3356
I204
s(g33
g42
g6
tp3357
I1
s(g26
g42
g77
tp3358
I1
s(g8
g42
g36
tp3359
I2
s(g16
g6
g23
tp3360
I1227
s(g15
g21
g16
tp3361
I311
s(g4
g10
g47
tp3362
I30
s(g24
g24
g16
tp3363
I6
s(g9
g36
g6
tp3364
I8
s(g9
g6
g40
tp3365
I6
s(g16
g77
g21
tp3366
I1
s(g9
g26
g4
tp3367
I62
s(g10
g36
g9
tp3368
I1
s(g5
g21
g5
tp3369
I1
s(g23
g5
g10
tp3370
I36
s(g8
g47
g47
tp3371
I154
s(g42
g47
g40
tp3372
I5
s(g18
g12
g47
tp3373
I1
s(g36
g5
g21
tp3374
I106
s(g26
g21
g16
tp3375
I220
s(g16
g26
g21
tp3376
I35
s(g39
g42
g16
tp3377
I10
s(g26
g5
g10
tp3378
I38
s(g14
g6
g4
tp3379
I1
s(g5
g5
g5
tp3380
I14
s(g10
g18
g47
tp3381
I8
s(g40
g16
g51
tp3382
I87
s(g6
g4
g67
tp3383
I4
s(g16
g36
g21
tp3384
I1
s(g40
g26
g47
tp3385
I1
s(g9
g6
g23
tp3386
I763
s(g26
g31
g9
tp3387
I2
s(g47
g16
g36
tp3388
I3
s(g6
g10
g47
tp3389
I8
s(g31
g77
g15
tp3390
I2
s(g8
g47
g40
tp3391
I55
s(g14
g10
g21
tp3392
I1
s(g10
g9
g12
tp3393
I15
s(g47
g40
g47
tp3394
I62
s(g31
g16
g15
tp3395
I165
s(g24
g9
g47
tp3396
I61
s(g6
g6
g8
tp3397
I35
s(g5
g31
g21
tp3398
I33
s(g31
g77
g21
tp3399
I168
s(g155
g4
g42
tp3400
I15
s(g9
g8
g4
tp3401
I117
s(g47
g26
g16
tp3402
I308
s(g8
g10
g21
tp3403
I10
s(g5
g12
g21
tp3404
I1
s(g21
g23
g14
tp3405
I110
s(g31
g26
g14
tp3406
I109
s(g16
g4
g12
tp3407
I45
s(g16
g9
g26
tp3408
I4
s(g31
g5
g5
tp3409
I1
s(g14
g14
g14
tp3410
I18
s(g31
g23
g9
tp3411
I1034
s(g26
g9
g31
tp3412
I1503
s(g31
g77
g14
tp3413
I80
s(g77
g21
g4
tp3414
I267
s(g16
g26
g4
tp3415
I1014
s(g47
g77
g51
tp3416
I4
s(g9
g5
g26
tp3417
I78
s(g5
g6
g5
tp3418
I87
s(g4
g42
g9
tp3419
I126
s(g9
g21
g40
tp3420
I89
s(g21
g47
g31
tp3421
I576
s(g31
g6
g31
tp3422
I3
s(g6
g10
g9
tp3423
I7
s(g8
g10
g6
tp3424
I1
s(g5
g23
g23
tp3425
I215
s(g16
g47
g6
tp3426
I611
s(g4
g47
g21
tp3427
I18
s(g12
g4
g31
tp3428
I1360
s(g5
g9
g77
tp3429
I1
s(g5
g24
g47
tp3430
I1
s(g15
g15
g4
tp3431
I19
s(g23
g12
g4
tp3432
I76
s(g23
g16
g33
tp3433
I5
s(g40
g31
g24
tp3434
I1
s(g9
g21
g42
tp3435
I53
s(g8
g9
g40
tp3436
I785
s(g31
g16
g42
tp3437
I13
s(g6
g8
g47
tp3438
I349
s(g67
g16
g12
tp3439
I22
s(g42
g47
g42
tp3440
I28
s(g12
g8
g6
tp3441
I1
s(g36
g52
tp3442
I1388
s(g24
g9
g26
tp3443
I97
s(g5
g31
g23
tp3444
I457
s(g23
g21
g16
tp3445
I777
s(g40
g47
g47
tp3446
I314
s(g21
g8
g4
tp3447
I16
s(g23
g23
g21
tp3448
I30
s(g47
g4
g39
tp3449
I313
s(g16
g23
g10
tp3450
I1
s(g31
g15
g9
tp3451
I17
s(g51
g47
g26
tp3452
I1
s(g21
g155
g4
tp3453
I1
s(g21
g5
g42
tp3454
I61
s(g4
g39
g36
tp3455
I18
s(g16
g6
g10
tp3456
I59
s(g40
g9
g9
tp3457
I119
s(g51
g16
g47
tp3458
I8
s(g21
g24
g4
tp3459
I69
s(g9
g21
g14
tp3460
I337
s(g4
g5
g21
tp3461
I54
s(g40
g6
g77
tp3462
I2
s(g155
g47
g21
tp3463
I58
s(g8
g8
g6
tp3464
I196
s(g47
g4
g24
tp3465
I36
s(g12
g4
g8
tp3466
I576
s(g4
g47
g23
tp3467
I3
s(g67
g36
g9
tp3468
I32
s(g21
g47
g4
tp3469
I2150
s(g155
g9
g14
tp3470
I55
s(g42
g36
g5
tp3471
I2
s(g8
g47
g39
tp3472
I1
s(g16
g31
g47
tp3473
I1450
s(g6
g47
g16
tp3474
I45
s(g16
g16
g16
tp3475
I11
s(g24
g16
g16
tp3476
I1
s(g16
g24
g14
tp3477
I1
s(g16
g51
g4
tp3478
I180
s(g4
g40
g4
tp3479
I343
s(g21
g26
g4
tp3480
I34
s(g9
g8
g36
tp3481
I33
s(g5
g12
g18
tp3482
I2
s(g15
g40
g16
tp3483
I3
s(g47
g24
g4
tp3484
I35
s(g9
g21
g15
tp3485
I319
s(g47
g21
g47
tp3486
I3699
s(g4
g40
g8
tp3487
I52
s(g18
g9
g39
tp3488
I6
s(g155
g4
g8
tp3489
I1
s(g36
g23
g47
tp3490
I462
s(g77
g15
g39
tp3491
I2
s(g23
g40
g16
tp3492
I183
s(g31
g36
g9
tp3493
I97
s(g77
g9
g21
tp3494
I420
s(g47
g42
g42
tp3495
I93
s(g47
g9
g42
tp3496
I362
s(g5
g16
g5
tp3497
I2
s(g47
g77
g15
tp3498
I115
s(g42
g10
g47
tp3499
I2
s(g4
g67
g16
tp3500
I64
s(g31
g42
g9
tp3501
I8
s(g77
g77
g77
tp3502
I54
s(g40
g4
g21
tp3503
I773
s(g42
g24
g9
tp3504
I157
s(g77
g47
g24
tp3505
I5
s(g10
g23
g21
tp3506
I3
s(g266
g8
tp3507
I8666
s(g4
g77
g4
tp3508
I101
s(g18
g16
g47
tp3509
I127
s(g42
g24
g77
tp3510
I1
s(g15
g10
g16
tp3511
I1
s(g26
g14
g10
tp3512
I6
s(g9
g23
g8
tp3513
I19
s(g31
g47
g24
tp3514
I4
s(g12
g6
g8
tp3515
I3
s(g4
g40
g39
tp3516
I42
s(g42
g4
g33
tp3517
I2
s(g26
g4
g23
tp3518
I503
s(g18
g4
g39
tp3519
I1
s(g4
g21
g77
tp3520
I1562
s(g9
g36
g4
tp3521
I6
s(g16
g31
g18
tp3522
I116
s(g18
g9
g4
tp3523
I1
s(g15
g77
g9
tp3524
I3
s(g16
g10
g8
tp3525
I314
s(g8
g47
g12
tp3526
I190
s(g40
g4
g6
tp3527
I3170
s(g42
g10
g6
tp3528
I2
s(g77
g14
g47
tp3529
I4
s(g6
g14
g26
tp3530
I37
s(g8
g8
g47
tp3531
I898
s(g4
g36
g39
tp3532
I1
s(g18
g31
g47
tp3533
I1
s(g6
g31
g16
tp3534
I26
s(g23
g14
g6
tp3535
I1
s(g16
g12
g21
tp3536
I3
s(g4
g10
g26
tp3537
I4
s(g24
g14
g23
tp3538
I18
s(g51
g4
g51
tp3539
I1
s(g23
g10
g26
tp3540
I1
s(g155
g47
g47
tp3541
I5
s(g31
g5
g8
tp3542
I5
s(g21
g26
g6
tp3543
I3
s(g21
g23
g15
tp3544
I2
s(g36
g16
g67
tp3545
I39
s(g8
g39
g31
tp3546
I1
s(g31
g8
g9
tp3547
I34
s(g5
g18
g9
tp3548
I1
s(g8
g77
g24
tp3549
I4
s(g4
g77
g15
tp3550
I6
s(g23
g8
g16
tp3551
I74
s(g24
g9
g12
tp3552
I214
s(g8
g16
g42
tp3553
I134
s(g51
g5
g26
tp3554
I1
s(g9
g23
g10
tp3555
I22
s(g77
g5
g9
tp3556
I2
s(g47
g51
g14
tp3557
I1
s(g23
g15
g4
tp3558
I2
s(g9
g31
g10
tp3559
I2
s(g24
g23
g8
tp3560
I59
s(g23
g14
g21
tp3561
I9
s(g36
g47
g42
tp3562
I2
s(g40
g6
g24
tp3563
I1
s(g47
g23
g23
tp3564
I544
s(g5
g31
g26
tp3565
I288
s(g9
g23
g15
tp3566
I8
s(g31
g9
g26
tp3567
I85
s(g4
g31
g15
tp3568
I763
s(g31
g24
g47
tp3569
I12
s(g6
g5
g33
tp3570
I1
s(g21
g18
g4
tp3571
I65
s(g12
g5
g47
tp3572
I2
s(g12
g40
g47
tp3573
I1
s(g16
g47
g47
tp3574
I2
s(g36
g4
g67
tp3575
I2
s(g77
g33
g5
tp3576
I2
s(g6
g5
g36
tp3577
I55
s(g21
g23
g4
tp3578
I265
s(g9
g24
g4
tp3579
I2
s(g4
g67
g42
tp3580
I3
s(g15
g40
g47
tp3581
I1
s(g266
g42
tp3582
I9208
s(g9
g12
g5
tp3583
I11
s(g18
g24
g36
tp3584
I1
s(g31
g4
g8
tp3585
I655
s(g77
g5
g47
tp3586
I40
s(g23
g10
g47
tp3587
I10
s(g31
g15
g14
tp3588
I6
s(g15
g21
g4
tp3589
I644
s(g42
g16
g6
tp3590
I29
s(g40
g10
g9
tp3591
I2
s(g47
g51
g47
tp3592
I36
s(g23
g18
g10
tp3593
I1
s(g15
g16
g26
tp3594
I166
s(g15
g15
g14
tp3595
I9
s(g24
g9
g39
tp3596
I16
s(g31
g21
g14
tp3597
I69
s(g5
g14
g6
tp3598
I11
s(g18
g23
g18
tp3599
I1
s(g21
g9
g4
tp3600
I305
s(g77
g47
g21
tp3601
I1248
s(g47
g31
g36
tp3602
I3
s(g31
g23
g40
tp3603
I4
s(g8
g77
g36
tp3604
I3
s(g12
g5
g24
tp3605
I2
s(g23
g5
g15
tp3606
I11
s(g15
g47
g40
tp3607
I7
s(g4
g23
g51
tp3608
I3
s(g21
g12
g4
tp3609
I343
s(g15
g9
g40
tp3610
I1
s(g39
g40
g16
tp3611
I13
s(g5
g31
g47
tp3612
I69
s(g8
g5
g31
tp3613
I108
s(g4
g10
g155
tp3614
I12
s(g39
g31
g4
tp3615
I12
s(g12
g24
g9
tp3616
I72
s(g39
g4
g14
tp3617
I46
s(g67
g16
g31
tp3618
I19
s(g5
g23
g8
tp3619
I26
s(g26
g26
g4
tp3620
I35
s(g14
g42
g24
tp3621
I44
s(g36
g4
g18
tp3622
I37
s(g8
g47
g155
tp3623
I1
s(g4
g15
g47
tp3624
I896
s(g24
g4
g36
tp3625
I22
s(g26
g14
g67
tp3626
I2
s(g77
g6
g40
tp3627
I1
s(g47
g36
g6
tp3628
I10
s(g51
g4
g26
tp3629
I3
s(g24
g42
g4
tp3630
I1
s(g40
g16
g39
tp3631
I32
s(g4
g31
g33
tp3632
I4
s(g16
g10
g6
tp3633
I12
s(g18
g21
g14
tp3634
I3
s(g9
g21
g4
tp3635
I237
s(g16
g47
g24
tp3636
I2
s(g31
g4
g12
tp3637
I176
s(g47
g8
g14
tp3638
I586
s(g16
g77
g15
tp3639
I36
s(g15
g5
g42
tp3640
I1
s(g21
g12
g26
tp3641
I4
s(g16
g15
g21
tp3642
I10
s(g24
g5
g21
tp3643
I214
s(g21
g16
g39
tp3644
I133
s(g77
g6
g47
tp3645
I10
s(g36
g21
g5
tp3646
I21
s(g5
g47
g14
tp3647
I2
s(g36
g47
g8
tp3648
I234
s(g21
g14
g24
tp3649
I1
s(g4
g51
g47
tp3650
I61
s(g47
g42
g24
tp3651
I52
s(g4
g31
g26
tp3652
I631
s(g8
g67
g4
tp3653
I4
s(g10
g12
g47
tp3654
I1
s(g47
g47
g47
tp3655
I26
s(g12
g16
g39
tp3656
I39
s(g16
g6
g33
tp3657
I1
s(g18
g16
g6
tp3658
I255
s(g5
g10
g26
tp3659
I2
s(g9
g26
g8
tp3660
I13
s(g9
g15
g9
tp3661
I3
s(g14
g31
g12
tp3662
I3
s(g4
g6
g4
tp3663
I51
s(g47
g6
g26
tp3664
I133
s(g16
g18
g4
tp3665
I116
s(g47
g47
g8
tp3666
I321
s(g77
g4
g42
tp3667
I6
s(g155
g9
g10
tp3668
I51
s(g23
g42
g23
tp3669
I1
s(g155
g4
g40
tp3670
I18
s(g4
g42
g21
tp3671
I22
s(g24
g4
g24
tp3672
I1
s(g4
g21
g8
tp3673
I350
s(g12
g26
g6
tp3674
I1
s(g8
g23
g9
tp3675
I17
s(g16
g8
g10
tp3676
I16
s(g15
g6
g16
tp3677
I6
s(g4
g77
g14
tp3678
I178
s(g5
g51
g47
tp3679
I1
s(g14
g6
g10
tp3680
I1
s(g15
g16
g51
tp3681
I7
s(g23
g47
g40
tp3682
I30
s(g42
g18
g24
tp3683
I1
s(g36
g23
g40
tp3684
I20
s(g12
g5
g23
tp3685
I60
s(g67
g12
g9
tp3686
I3
s(g10
g9
g23
tp3687
I318
s(g8
g15
g16
tp3688
I7
s(g5
g8
g4
tp3689
I328
s(g21
g47
g40
tp3690
I242
s(g36
g47
g31
tp3691
I77
s(g4
g6
g39
tp3692
I292
s(g16
g16
g31
tp3693
I4
s(g36
g9
g26
tp3694
I20
s(g4
g36
g4
tp3695
I2
s(g51
g4
g10
tp3696
I9
s(g26
g47
g12
tp3697
I38
s(g4
g10
g5
tp3698
I16
s(g36
g5
g47
tp3699
I6
s(g42
g23
g18
tp3700
I4
s(g12
g16
g12
tp3701
I11
s(g77
g8
g14
tp3702
I271
s(g9
g155
g9
tp3703
I4
s(g47
g24
g5
tp3704
I1
s(g21
g14
g36
tp3705
I89
s(g47
g26
g14
tp3706
I3
s(g6
g23
g42
tp3707
I2
s(g10
g47
g36
tp3708
I258
s(g12
g5
g6
tp3709
I494
s(g14
g42
g21
tp3710
I7
s(g9
g4
g33
tp3711
I1
s(g51
g4
g15
tp3712
I4
s(g15
g24
g23
tp3713
I2169
s(g51
g51
g47
tp3714
I5
s(g4
g36
g6
tp3715
I1
s(g14
g15
g39
tp3716
I1
s(g12
g9
g77
tp3717
I153
s(g6
g24
g10
tp3718
I11
s(g5
g6
g26
tp3719
I23
s(g31
g47
g31
tp3720
I48
s(g6
g39
g9
tp3721
I3
s(g47
g6
g24
tp3722
I60
s(g12
g14
g6
tp3723
I55
s(g6
g5
g31
tp3724
I89
s(g12
g42
g40
tp3725
I1
s(g42
g21
g12
tp3726
I1
s(g67
g5
g8
tp3727
I3
s(g23
g16
g4
tp3728
I127
s(g36
g16
g16
tp3729
I7
s(g4
g18
g5
tp3730
I1
s(g14
g47
g77
tp3731
I72
s(g36
g14
g31
tp3732
I1
s(g77
g6
g16
tp3733
I7
s(g23
g47
g26
tp3734
I133
s(g6
g9
g77
tp3735
I21
s(g8
g10
g10
tp3736
I1
s(g42
g10
g9
tp3737
I11
s(g42
g9
g6
tp3738
I469
s(g12
g15
g4
tp3739
I1
s(g9
g42
g26
tp3740
I2
s(g14
g21
g23
tp3741
I61
s(g9
g24
g14
tp3742
I1
s(g10
g5
g47
tp3743
I1
s(g4
g16
g23
tp3744
I175
s(g155
g9
g31
tp3745
I38
s(g18
g47
g14
tp3746
I32
s(g4
g16
g4
tp3747
I2
s(g26
g8
g5
tp3748
I257
s(g155
g5
g12
tp3749
I185
s(g31
g4
g21
tp3750
I413
s(g21
g14
g51
tp3751
I1
s(g31
g9
g51
tp3752
I1
s(g36
g4
g5
tp3753
I22
s(g26
g39
g8
tp3754
I137
s(g14
g12
g9
tp3755
I39
s(g77
g4
g77
tp3756
I43
s(g4
g8
g77
tp3757
I52
s(g21
g26
g8
tp3758
I30
s(g6
g6
g6
tp3759
I1
s(g4
g36
g26
tp3760
I2
s(g47
g9
g77
tp3761
I6
s(g42
g8
g16
tp3762
I217
s(g26
g16
g9
tp3763
I95
s(g40
g39
g39
tp3764
I1
s(g26
g47
g40
tp3765
I6
s(g21
g9
g14
tp3766
I76
s(g21
g4
g8
tp3767
I444
s(g47
g21
g23
tp3768
I421
s(g4
g5
g26
tp3769
I11
s(g51
g8
g47
tp3770
I30
s(g21
g31
g14
tp3771
I1
s(g40
g15
g16
tp3772
I1
s(g6
g24
g24
tp3773
I2
s(g4
g16
g6
tp3774
I138
s(g24
g47
g8
tp3775
I437
s(g8
g47
g21
tp3776
I256
s(g14
g8
g5
tp3777
I4
s(g26
g40
g39
tp3778
I1
s(g47
g47
g42
tp3779
I382
s(g14
g23
g9
tp3780
I1
s(g9
g77
g14
tp3781
I219
s(g5
g4
g31
tp3782
I33
s(g4
g24
g40
tp3783
I1
s(g26
g47
g4
tp3784
I37
s(g12
g6
g16
tp3785
I8
s(g15
g4
g77
tp3786
I6
s(g6
g47
g14
tp3787
I11
s(g9
g40
g42
tp3788
I1
s(g5
g12
g36
tp3789
I1
s(g4
g155
g4
tp3790
I3
s(g26
g15
g4
tp3791
I1
s(g42
g77
g12
tp3792
I1
s(g9
g42
g47
tp3793
I713
s(g67
g4
g23
tp3794
I7
s(g6
g23
g47
tp3795
I1423
s(g5
g26
g39
tp3796
I210
s(g10
g5
g26
tp3797
I33
s(g47
g40
g23
tp3798
I190
s(g24
g6
g26
tp3799
I4
s(g4
g42
g24
tp3800
I166
s(g10
g4
g67
tp3801
I3
s(g77
g16
g8
tp3802
I30
s(g67
g16
g18
tp3803
I6
s(g10
g16
g21
tp3804
I82
s(g26
g39
g21
tp3805
I1
s(g47
g77
g77
tp3806
I19
s(g21
g14
g42
tp3807
I44
s(g36
g4
g6
tp3808
I104
s(g23
g6
g16
tp3809
I77
s(g23
g4
g23
tp3810
I479
s(g21
g8
g16
tp3811
I77
s(g4
g6
g10
tp3812
I4
s(g12
g9
g40
tp3813
I5
s(g16
g9
g23
tp3814
I24
s(g6
g6
g5
tp3815
I91
s(g77
g77
g23
tp3816
I1
s(g31
g14
g9
tp3817
I64
s(g16
g6
g16
tp3818
I319
s(g31
g77
g4
tp3819
I253
s(g23
g9
g15
tp3820
I98
s(g31
g47
g21
tp3821
I499
s(g31
g16
g8
tp3822
I23
s(g10
g9
g4
tp3823
I117
s(g9
g31
g4
tp3824
I544
s(g16
g77
g9
tp3825
I117
s(g5
g18
g4
tp3826
I1
s(g16
g23
g8
tp3827
I29
s(g77
g9
g4
tp3828
I1
s(g12
g36
g9
tp3829
I58
s(g10
g6
g6
tp3830
I1
s(g26
g26
g23
tp3831
I3
s(g10
g31
g26
tp3832
I1
s(g31
g40
g4
tp3833
I28
s(g5
g26
g47
tp3834
I98
s(g8
g47
g23
tp3835
I591
s(g14
g42
g31
tp3836
I19
s(g21
g15
g15
tp3837
I1
s(g36
g47
g40
tp3838
I146
s(g21
g14
g6
tp3839
I15
s(g31
g5
g4
tp3840
I36
s(g9
g14
g36
tp3841
I4
s(g10
g10
g47
tp3842
I95
s(g77
g16
g18
tp3843
I120
s(g47
g4
g40
tp3844
I1
s(g24
g23
g40
tp3845
I1
s(g10
g16
g67
tp3846
I2
s(g26
g23
g9
tp3847
I235
s(g12
g6
g15
tp3848
I1
s(g10
g4
g21
tp3849
I174
s(g47
g8
g23
tp3850
I223
s(g14
g6
g9
tp3851
I20
s(g21
g31
g47
tp3852
I372
s(g9
g9
g77
tp3853
I705
s(g10
g16
g47
tp3854
I57
s(g67
g16
g4
tp3855
I4
s(g14
g8
g4
tp3856
I6
s(g42
g4
g77
tp3857
I10
s(g31
g77
g8
tp3858
I113
s(g9
g26
g16
tp3859
I219
s(g4
g23
g47
tp3860
I1880
s(g16
g12
g5
tp3861
I61
s(g12
g31
g31
tp3862
I1
s(g12
g16
g21
tp3863
I63
s(g14
g26
g47
tp3864
I5
s(g14
g4
g15
tp3865
I5
s(g47
g4
g23
tp3866
I1213
s(g12
g9
g31
tp3867
I495
s(g5
g10
g18
tp3868
I8
s(g39
g47
g9
tp3869
I1
s(g15
g16
g10
tp3870
I18
s(g23
g24
g16
tp3871
I3017
s(g15
g9
g31
tp3872
I242
s(g15
g12
g4
tp3873
I9
s(g23
g26
g4
tp3874
I3
s(g10
g26
g4
tp3875
I1
s(g39
g4
g23
tp3876
I8
s(g26
g16
g6
tp3877
I101
s(g47
g26
g24
tp3878
I215
s(g36
g4
g4
tp3879
I2
s(g26
g23
g36
tp3880
I3
s(g26
g24
g8
tp3881
I25
s(g10
g6
g5
tp3882
I12
s(g6
g23
g14
tp3883
I97
s(g23
g16
g31
tp3884
I1759
s(g16
g42
g5
tp3885
I6
s(g5
g4
g21
tp3886
I163
s(g9
g23
g40
tp3887
I3
s(g26
g24
g47
tp3888
I971
s(g4
g47
g12
tp3889
I1
s(g39
g39
g9
tp3890
I1
s(g6
g9
g18
tp3891
I3
s(g47
g26
g23
tp3892
I1242
s(g16
g6
g31
tp3893
I1
s(g47
g26
g4
tp3894
I323
s(g155
g36
g40
tp3895
I1
s(g4
g31
g8
tp3896
I6
s(g4
g4
g18
tp3897
I1
s(g23
g31
g47
tp3898
I39
s(g16
g12
g40
tp3899
I1
s(g8
g21
g31
tp3900
I1
s(g155
g47
g36
tp3901
I15
s(g14
g4
g21
tp3902
I52
s(g24
g10
g16
tp3903
I4
s(g26
g9
g18
tp3904
I145
s(g77
g26
g5
tp3905
I2
s(g12
g47
g10
tp3906
I48
s(g4
g23
g26
tp3907
I319
s(g47
g12
g8
tp3908
I1
s(g18
g21
g47
tp3909
I1
s(g15
g16
g6
tp3910
I47
s(g39
g5
g39
tp3911
I1
s(g5
g31
g8
tp3912
I89
s(g266
g10
tp3913
I11479
s(g9
g47
g8
tp3914
I5
s(g21
g4
g51
tp3915
I32
s(g16
g39
g9
tp3916
I3
s(g15
g15
g16
tp3917
I64
s(g15
g36
g47
tp3918
I1
s(g39
g4
g21
tp3919
I50
s(g26
g14
g16
tp3920
I1
s(g5
g23
g47
tp3921
I523
s(g23
g12
g16
tp3922
I4
s(g9
g6
g39
tp3923
I41
s(g4
g10
g16
tp3924
I152
s(g21
g10
g5
tp3925
I7
s(g5
g26
g16
tp3926
I56
s(g6
g4
g15
tp3927
I118
s(g31
g10
g12
tp3928
I1
s(g39
g42
g47
tp3929
I1
s(g31
g14
g77
tp3930
I1
s(g47
g16
g77
tp3931
I9
s(g42
g47
g47
tp3932
I115
s(g31
g16
g36
tp3933
I76
s(g4
g12
g12
tp3934
I137
s(g6
g39
g23
tp3935
I2
s(g24
g16
g39
tp3936
I7
s(g40
g14
g47
tp3937
I19
s(g26
g33
g5
tp3938
I20
s(g155
g16
g12
tp3939
I22
s(g24
g47
g77
tp3940
I675
s(g5
g42
g23
tp3941
I60
s(g77
g12
g26
tp3942
I1
s(g42
g16
g26
tp3943
I240
s(g12
g26
g23
tp3944
I1
s(g4
g15
g6
tp3945
I16
s(g16
g52
tp3946
I257
s(g23
g18
g21
tp3947
I1
s(g40
g31
g26
tp3948
I1
s(g31
g77
g6
tp3949
I513
s(g42
g36
g26
tp3950
I4
s(g6
g26
g155
tp3951
I1
s(g42
g9
g39
tp3952
I76
s(g47
g36
g47
tp3953
I171
s(g77
g26
g6
tp3954
I3
s(g77
g31
g23
tp3955
I31
s(g10
g14
g42
tp3956
I1
s(g6
g47
g23
tp3957
I240
s(g155
g15
g21
tp3958
I2
s(g47
g40
g40
tp3959
I5
s(g21
g8
g14
tp3960
I302
s(g21
g39
g14
tp3961
I1
s(g15
g10
g31
tp3962
I1
s(g12
g4
g23
tp3963
I1113
s(g26
g21
g47
tp3964
I637
s(g10
g77
g9
tp3965
I3
s(g26
g5
g9
tp3966
I8
s(g26
g5
g36
tp3967
I8
s(g31
g10
g21
tp3968
I4
s(g24
g16
g8
tp3969
I434
s(g12
g14
g21
tp3970
I67
s(g40
g31
g10
tp3971
I1
s(g16
g9
g10
tp3972
I1
s(g31
g31
g6
tp3973
I19
s(g6
g26
g16
tp3974
I242
s(g47
g40
g4
tp3975
I74
s(g4
g51
g5
tp3976
I1
s(g15
g15
g15
tp3977
I10
s(g4
g47
g4
tp3978
I1
s(g5
g12
g31
tp3979
I5
s(g10
g10
g9
tp3980
I7
s(g9
g8
g23
tp3981
I128
s(g67
g23
g21
tp3982
I111
s(g14
g4
g26
tp3983
I1
s(g26
g4
g18
tp3984
I12
s(g4
g12
g6
tp3985
I117
s(g16
g23
g77
tp3986
I1
s(g4
g31
g24
tp3987
I6
s(g14
g4
g31
tp3988
I33
s(g155
g9
g4
tp3989
I6
s(g16
g9
g15
tp3990
I13
s(g12
g4
g51
tp3991
I21
s(g4
g42
g6
tp3992
I148
s(g5
g8
g42
tp3993
I28
s(g42
g16
g47
tp3994
I134
s(g9
g6
g5
tp3995
I1
s(g21
g4
g24
tp3996
I13
s(g36
g16
g12
tp3997
I1
s(g23
g31
g16
tp3998
I13
s(g9
g12
g31
tp3999
I5
s(g40
g16
g42
tp4000
I24
s(g47
g31
g21
tp4001
I81
s(g5
g36
g36
tp4002
I199
s(g8
g77
g21
tp4003
I71
s(g14
g5
g23
tp4004
I1
s(g15
g47
g8
tp4005
I52
s(g31
g77
g5
tp4006
I74
s(g24
g9
g77
tp4007
I50
s(g14
g36
g21
tp4008
I2
s(g40
g4
g39
tp4009
I56
s(g10
g77
g16
tp4010
I2
s(g4
g12
g42
tp4011
I192
s(g155
g47
g23
tp4012
I16
s(g155
g9
g40
tp4013
I1
s(g40
g16
g47
tp4014
I21
s(g5
g23
g42
tp4015
I2
s(g10
g77
g47
tp4016
I1
s(g155
g14
g12
tp4017
I3
s(g24
g5
g77
tp4018
I178
s(g15
g31
g9
tp4019
I74
s(g31
g23
g26
tp4020
I1
s(g5
g42
g10
tp4021
I11
s(g36
g16
g36
tp4022
I71
s(g5
g8
g6
tp4023
I59
s(g21
g15
g9
tp4024
I71
s(g21
g23
g12
tp4025
I28
s(g77
g40
g47
tp4026
I4
s(g31
g23
g31
tp4027
I1
s(g31
g5
g23
tp4028
I178
s(g16
g8
g40
tp4029
I3
s(g14
g10
g8
tp4030
I1
s(g4
g12
g16
tp4031
I253
s(g21
g47
g15
tp4032
I161
s(g5
g24
g4
tp4033
I7
s(g47
g31
g6
tp4034
I421
s(g40
g5
g31
tp4035
I14
s(g24
g9
g15
tp4036
I104
s(g39
g47
g15
tp4037
I3
s(g21
g9
g31
tp4038
I1073
s(g16
g26
g24
tp4039
I734
s(g40
g67
g12
tp4040
I1
s(g24
g9
g16
tp4041
I47
s(g6
g8
g16
tp4042
I219
s(g12
g4
g39
tp4043
I486
s(g15
g16
g9
tp4044
I98
s(g6
g6
g24
tp4045
I5
s(g12
g18
g47
tp4046
I2
s(g31
g47
g26
tp4047
I119
s(g4
g47
g6
tp4048
I55
s(g23
g5
g23
tp4049
I74
s(g12
g12
g12
tp4050
I4
s(g67
g42
g4
tp4051
I20
s(g21
g26
g39
tp4052
I4
s(g16
g47
g23
tp4053
I215
s(g47
g4
g9
tp4054
I1
s(g77
g26
g8
tp4055
I1
s(g51
g16
g4
tp4056
I3
s(g8
g14
g16
tp4057
I134
s(g14
g14
g6
tp4058
I1
s(g47
g155
g5
tp4059
I6
s(g10
g18
g16
tp4060
I29
s(g9
g4
g51
tp4061
I1
s(g42
g23
g47
tp4062
I125
s(g24
g4
g6
tp4063
I571
s(g24
g5
g36
tp4064
I28
s(g47
g31
g23
tp4065
I3163
s(g5
g40
g16
tp4066
I3
s(g23
g8
g67
tp4067
I1
s(g5
g6
g6
tp4068
I82
s(g77
g24
g16
tp4069
I3
s(g40
g9
g6
tp4070
I2
s(g31
g6
g8
tp4071
I28
s(g31
g51
g14
tp4072
I9
s(g77
g4
g39
tp4073
I1
s(g39
g9
g10
tp4074
I1
s(g51
g9
g21
tp4075
I2
s(g16
g8
g5
tp4076
I13
s(g9
g47
g18
tp4077
I71
s(g36
g47
g4
tp4078
I140
s(g8
g10
g5
tp4079
I14
s(g4
g21
g10
tp4080
I68
s(g47
g4
g8
tp4081
I591
s(g21
g47
g42
tp4082
I384
s(g9
g4
g77
tp4083
I230
s(g9
g23
g21
tp4084
I7
s(g31
g6
g47
tp4085
I280
s(g9
g6
g4
tp4086
I16
s(g40
g9
g31
tp4087
I136
s(g9
g31
g51
tp4088
I6
s(g77
g47
g39
tp4089
I2
s(g16
g36
g14
tp4090
I45
s(g6
g26
g47
tp4091
I114
s(g9
g42
g6
tp4092
I101
s(g6
g40
g16
tp4093
I102
s(g4
g26
g14
tp4094
I31
s(g40
g21
g47
tp4095
I46
s(g4
g39
g6
tp4096
I30
s(g6
g6
g16
tp4097
I576
s(g14
g51
g39
tp4098
I2
s(g10
g16
g33
tp4099
I3
s(g4
g47
g5
tp4100
I1
s(g77
g18
g47
tp4101
I63
s(g47
g77
g26
tp4102
I1
s(g23
g36
g16
tp4103
I2
s(g12
g9
g24
tp4104
I1
s(g16
g31
g77
tp4105
I1298
s(g67
g15
g21
tp4106
I2
s(g40
g9
g12
tp4107
I134
s(g4
g8
g26
tp4108
I58
s(g42
g42
g5
tp4109
I10
s(g18
g9
g40
tp4110
I2
s(g47
g9
g23
tp4111
I1
s(g42
g47
g12
tp4112
I1
s(g39
g47
g16
tp4113
I3
s(g21
g9
g16
tp4114
I14
s(g16
g77
g8
tp4115
I44
s(g16
g31
g9
tp4116
I54
s(g47
g21
g77
tp4117
I40
s(g4
g8
g51
tp4118
I3
s(g10
g40
g16
tp4119
I1
s(g23
g23
g24
tp4120
I6
s(g5
g21
g26
tp4121
I85
s(g15
g21
g14
tp4122
I170
s(g31
g4
g15
tp4123
I159
s(g16
g23
g16
tp4124
I635
s(g14
g47
g23
tp4125
I131
s(g5
g15
g4
tp4126
I48
s(g24
g5
g24
tp4127
I8
s(g9
g67
g47
tp4128
I12
s(g10
g47
g14
tp4129
I50
s(g6
g9
g23
tp4130
I3
s(g77
g77
g4
tp4131
I10
s(g6
g26
g21
tp4132
I303
s(g4
g40
g15
tp4133
I2
s(g5
g47
g8
tp4134
I54
s(g26
g4
g42
tp4135
I159
s(g26
g47
g10
tp4136
I2
s(g39
g16
g77
tp4137
I42
s(g26
g9
g15
tp4138
I35
s(g10
g21
g26
tp4139
I1
s(g36
g23
g14
tp4140
I38
s(g12
g26
g15
tp4141
I82
s(g4
g36
g9
tp4142
I5
s(g4
g40
g21
tp4143
I13
s(g31
g36
g47
tp4144
I74
s(g47
g31
g9
tp4145
I195
s(g21
g21
g6
tp4146
I3
s(g47
g10
g6
tp4147
I11
s(g9
g42
g5
tp4148
I47
s(g21
g12
g14
tp4149
I12
s(g8
g8
g16
tp4150
I497
s(g15
g23
g24
tp4151
I41
s(g47
g9
g12
tp4152
I32
s(g6
g47
g15
tp4153
I12
s(g18
g9
g12
tp4154
I11
s(g9
g6
g26
tp4155
I42
s(g16
g4
g42
tp4156
I2
s(g23
g26
g12
tp4157
I1
s(g4
g21
g18
tp4158
I36
s(g10
g9
g24
tp4159
I1
s(g8
g16
g23
tp4160
I895
s(g16
g26
g39
tp4161
I883
s(g26
g21
g23
tp4162
I3
s(g40
g4
g23
tp4163
I320
s(g24
g8
g9
tp4164
I9
s(g12
g16
g6
tp4165
I285
s(g23
g14
g15
tp4166
I1
s(g23
g9
g36
tp4167
I3
s(g16
g12
g31
tp4168
I15
s(g23
g10
g9
tp4169
I6
s(g9
g4
g36
tp4170
I4
s(g16
g16
g42
tp4171
I1
s(g77
g5
g6
tp4172
I46
s(g23
g4
g14
tp4173
I78
s(g31
g24
g16
tp4174
I5
s(g8
g9
g5
tp4175
I291
s(g10
g6
g26
tp4176
I33
s(g8
g39
g12
tp4177
I2
s(g77
g40
g9
tp4178
I2
s(g10
g9
g51
tp4179
I2
s(g23
g16
g21
tp4180
I147
s(g15
g12
g155
tp4181
I14
s(g36
g10
g16
tp4182
I1
s(g4
g33
g5
tp4183
I15
s(g5
g4
g6
tp4184
I12
s(g47
g31
g16
tp4185
I436
s(g6
g26
g23
tp4186
I2
s(g9
g26
g23
tp4187
I52
s(g155
g52
tp4188
I21
s(g9
g23
g26
tp4189
I15
s(g31
g6
g16
tp4190
I347
s(g24
g9
g8
tp4191
I538
s(g6
g23
g36
tp4192
I4
s(g24
g40
g47
tp4193
I1
s(g23
g10
g8
tp4194
I1
s(g24
g4
g9
tp4195
I9
s(g6
g36
g4
tp4196
I6
s(g14
g24
g9
tp4197
I17
s(g15
g47
g16
tp4198
I4
s(g51
g40
g47
tp4199
I1
s(g5
g16
g10
tp4200
I8
s(g10
g16
g10
tp4201
I18
s(g23
g8
g10
tp4202
I2
s(g23
g10
g4
tp4203
I24
s(g77
g5
g23
tp4204
I18
s(g9
g24
g47
tp4205
I7
s(g5
g15
g36
tp4206
I1
s(g12
g8
g47
tp4207
I7
s(g15
g21
g42
tp4208
I3
s(g36
g4
g8
tp4209
I121
s(g21
g24
g9
tp4210
I9
s(g77
g5
g16
tp4211
I12
s(g16
g47
g36
tp4212
I87
s(g4
g18
g16
tp4213
I255
s(g24
g9
g9
tp4214
I307
s(g51
g16
g9
tp4215
I2
s(g42
g12
g9
tp4216
I2
s(g23
g5
g31
tp4217
I151
s(g15
g16
g21
tp4218
I124
s(g12
g16
g5
tp4219
I1
s(g23
g47
g9
tp4220
I10
s(g40
g4
g24
tp4221
I1
s(g14
g52
tp4222
I18117
s(g23
g5
g26
tp4223
I29
s(g26
g23
g18
tp4224
I5
s(g36
g23
g8
tp4225
I16
s(g6
g42
g16
tp4226
I268
s(g47
g39
g4
tp4227
I1
s(g4
g6
g6
tp4228
I860
s(g18
g47
g77
tp4229
I332
s(g21
g6
g77
tp4230
I6
s(g15
g21
g5
tp4231
I28
s(g36
g9
g47
tp4232
I5
s(g12
g42
g5
tp4233
I133
s(g5
g23
g24
tp4234
I265
s(g40
g24
g26
tp4235
I1
s(g9
g8
g40
tp4236
I1
s(g21
g77
g6
tp4237
I378
s(g47
g15
g15
tp4238
I82
s(g4
g23
g31
tp4239
I6
s(g31
g23
g18
tp4240
I1
s(g36
g8
g16
tp4241
I130
s(g8
g9
g39
tp4242
I5
s(g15
g5
g77
tp4243
I1
s(g4
g4
g36
tp4244
I1
s(g67
g23
g24
tp4245
I5
s(g12
g10
g6
tp4246
I32
s(g4
g31
g5
tp4247
I41
s(g15
g9
g47
tp4248
I61
s(g31
g4
g6
tp4249
I39
s(g77
g155
g5
tp4250
I12
s(g9
g21
g8
tp4251
I177
s(g14
g26
g24
tp4252
I38
s(g67
g16
g9
tp4253
I62
s(g8
g12
g24
tp4254
I70
s(g5
g67
g40
tp4255
I2
s(g6
g9
g9
tp4256
I109
s(g23
g5
g8
tp4257
I16
s(g12
g12
g5
tp4258
I85
s(g5
g23
g10
tp4259
I4
s(g18
g16
g9
tp4260
I93
s(g8
g9
g8
tp4261
I8
s(g21
g6
g36
tp4262
I2
s(g8
g47
g67
tp4263
I71
s(g26
g24
g5
tp4264
I77
s(g9
g5
g18
tp4265
I2
s(g26
g24
g36
tp4266
I4
s(g5
g4
g40
tp4267
I2
s(g40
g4
g36
tp4268
I3
s(g31
g16
g24
tp4269
I6
s(g16
g18
g47
tp4270
I1248
s(g47
g21
g9
tp4271
I161
s(g10
g23
g36
tp4272
I4
s(g23
g9
g8
tp4273
I197
s(g47
g47
g4
tp4274
I7
s(g40
g24
g47
tp4275
I1157
s(g31
g39
g12
tp4276
I15
s(g47
g31
g47
tp4277
I690
s(g16
g6
g5
tp4278
I25
s(g8
g8
g9
tp4279
I431
s(g47
g42
g4
tp4280
I98
s(g21
g77
g5
tp4281
I8
s(g36
g5
g15
tp4282
I6
s(g9
g31
g5
tp4283
I19
s(g4
g10
g77
tp4284
I5
s(g24
g40
g16
tp4285
I2
s(g24
g47
g23
tp4286
I166
s(g42
g23
g16
tp4287
I181
s(g47
g8
g47
tp4288
I534
s(g47
g10
g4
tp4289
I33
s(g4
g15
g26
tp4290
I1
s(g5
g42
g6
tp4291
I87
s(g14
g8
g16
tp4292
I26
s(g9
g21
g31
tp4293
I214
s(g40
g4
g15
tp4294
I17
s(g47
g36
g5
tp4295
I141
s(g18
g15
g5
tp4296
I1
s(g10
g8
g14
tp4297
I204
s(g39
g47
g42
tp4298
I95
s(g77
g10
g47
tp4299
I1
s(g12
g4
g36
tp4300
I1
s(g31
g39
g31
tp4301
I10
s(g155
g12
g6
tp4302
I1
s(g8
g42
g6
tp4303
I8
s(g31
g4
g39
tp4304
I63
s(g4
g77
g5
tp4305
I40
s(g21
g16
g4
tp4306
I277
s(g6
g4
g14
tp4307
I390
s(g51
g51
g10
tp4308
I1
s(g14
g47
g10
tp4309
I14
s(g26
g47
g16
tp4310
I103
s(g10
g9
g42
tp4311
I1
s(g40
g21
g14
tp4312
I1
s(g6
g4
g10
tp4313
I14
s(g12
g23
g18
tp4314
I1
s(g42
g42
g8
tp4315
I181
s(g14
g21
g21
tp4316
I3
s(g21
g4
g15
tp4317
I206
s(g12
g4
g15
tp4318
I252
s(g9
g8
g77
tp4319
I784
s(g6
g6
g12
tp4320
I4
s(g10
g12
g26
tp4321
I1
s(g5
g6
g10
tp4322
I8
s(g8
g42
g4
tp4323
I19
s(g12
g16
g15
tp4324
I213
s(g14
g9
g12
tp4325
I4
s(g26
g24
g24
tp4326
I6
s(g47
g21
g40
tp4327
I54
s(g31
g4
g23
tp4328
I498
s(g40
g31
g6
tp4329
I28
s(g9
g9
g31
tp4330
I246
s(g39
g14
g40
tp4331
I1
s(g24
g77
g23
tp4332
I1
s(g4
g39
g31
tp4333
I7
s(g77
g16
g23
tp4334
I250
s(g6
g23
g23
tp4335
I1
s(g40
g4
g47
tp4336
I1
s(g10
g4
g16
tp4337
I27
s(g155
g16
g15
tp4338
I3
s(g10
g24
g4
tp4339
I1
s(g5
g51
g51
tp4340
I52
s(g14
g10
g4
tp4341
I6
s(g21
g4
g36
tp4342
I42
s(g12
g4
g77
tp4343
I415
s(g42
g9
g18
tp4344
I10
s(g23
g47
g10
tp4345
I7
s(g40
g47
g23
tp4346
I24
s(g9
g77
g40
tp4347
I1
s(g47
g5
g77
tp4348
I6
s(g8
g8
g42
tp4349
I2
s(g40
g31
g21
tp4350
I3
s(g155
g47
g6
tp4351
I49
s(g21
g23
g31
tp4352
I13
s(g51
g12
g9
tp4353
I5
s(g21
g5
g47
tp4354
I63
s(g47
g8
g36
tp4355
I496
s(g39
g6
g23
tp4356
I3
s(g31
g31
g4
tp4357
I59
s(g6
g40
g5
tp4358
I10
s(g5
g8
g26
tp4359
I5
s(g47
g24
g21
tp4360
I2
s(g77
g8
g47
tp4361
I373
s(g9
g21
g23
tp4362
I926
s(g47
g21
g12
tp4363
I576
s(g9
g67
g36
tp4364
I32
s(g9
g31
g14
tp4365
I87
s(g31
g47
g12
tp4366
I34
s(g6
g24
g4
tp4367
I482
s(g9
g10
g18
tp4368
I29
s(g21
g47
g14
tp4369
I50
s(g31
g47
g10
tp4370
I2
s(g77
g10
g14
tp4371
I7
s(g5
g42
g40
tp4372
I18
s(g6
g16
g4
tp4373
I43
s(g266
g26
tp4374
I11945
s(g10
g5
g23
tp4375
I1633
s(g26
g31
g16
tp4376
I1
s(g4
g16
g47
tp4377
I5
s(g16
g18
g16
tp4378
I340
s(g4
g5
g10
tp4379
I7
s(g9
g9
g8
tp4380
I233
s(g47
g5
g26
tp4381
I9
s(g42
g8
g47
tp4382
I1595
s(g12
g14
g23
tp4383
I10
s(g67
g4
g15
tp4384
I23
s(g21
g5
g36
tp4385
I11
s(g24
g47
g16
tp4386
I766
s(g6
g24
g40
tp4387
I3
s(g9
g77
g12
tp4388
I5
s(g6
g14
g31
tp4389
I35
s(g26
g9
g39
tp4390
I9
s(g23
g18
g12
tp4391
I1
s(g31
g21
g47
tp4392
I30
s(g23
g9
g4
tp4393
I17
s(g47
g36
g8
tp4394
I35
s(g26
g47
g6
tp4395
I544
s(g42
g9
g42
tp4396
I103
s(g47
g5
g14
tp4397
I2
s(g42
g42
g18
tp4398
I1
s(g31
g4
g40
tp4399
I6
s(g4
g16
g40
tp4400
I1
s(g77
g8
g9
tp4401
I8
s(g36
g4
g16
tp4402
I142
s(g51
g39
g4
tp4403
I7
s(g26
g40
g9
tp4404
I5
s(g40
g47
g21
tp4405
I1385
s(g40
g6
g26
tp4406
I1
s(g24
g12
g5
tp4407
I2
s(g16
g33
g5
tp4408
I84
s(g9
g47
g36
tp4409
I1
s(g47
g24
g8
tp4410
I2
s(g12
g16
g51
tp4411
I12
s(g31
g9
g14
tp4412
I16
s(g21
g39
g47
tp4413
I294
s(g10
g5
g14
tp4414
I33
s(g26
g4
g155
tp4415
I2
s(g12
g26
g24
tp4416
I4
s(g6
g23
g16
tp4417
I1198
s(g14
g23
g39
tp4418
I1
s(g5
g47
g9
tp4419
I1
s(g6
g9
g36
tp4420
I71
s(g26
g9
g24
tp4421
I35
s(g77
g14
g40
tp4422
I1
s(g12
g36
g21
tp4423
I31
s(g9
g14
g77
tp4424
I3
s(g6
g16
g15
tp4425
I287
s(g6
g6
g4
tp4426
I159
s(g10
g10
g21
tp4427
I2
s(g9
g10
g16
tp4428
I28
s(g14
g5
g12
tp4429
I4
s(g31
g47
g6
tp4430
I624
s(g39
g9
g40
tp4431
I2
s(g5
g36
g8
tp4432
I1
s(g9
g40
g23
tp4433
I7
s(g47
g21
g6
tp4434
I1877
s(g47
g40
g42
tp4435
I5
s(g5
g15
g8
tp4436
I43
s(g9
g77
g26
tp4437
I2
s(g10
g5
g21
tp4438
I329
s(g47
g5
g42
tp4439
I8
s(g4
g26
g16
tp4440
I114
s(g4
g155
g47
tp4441
I18
s(g42
g4
g10
tp4442
I18
s(g4
g5
g77
tp4443
I67
s(g77
g4
g36
tp4444
I1
s(g155
g5
g39
tp4445
I2
s(g9
g5
g6
tp4446
I1198
s(g21
g16
g5
tp4447
I28
s(g42
g77
g4
tp4448
I10
s(g8
g18
g4
tp4449
I18
s(g47
g16
g9
tp4450
I1
s(g51
g8
g16
tp4451
I12
s(g42
g42
g47
tp4452
I675
s(g36
g9
g14
tp4453
I192
s(g21
g9
g40
tp4454
I505
s(g8
g10
g47
tp4455
I26
s(g9
g47
g77
tp4456
I19
s(g8
g40
g24
tp4457
I1
s(g4
g8
g155
tp4458
I1
s(g4
g5
g51
tp4459
I1
s(g26
g14
g4
tp4460
I2
s(g36
g4
g15
tp4461
I1
s(g8
g6
g16
tp4462
I22
s(g9
g51
g14
tp4463
I2
s(g31
g4
g14
tp4464
I5
s(g40
g4
g31
tp4465
I507
s(g42
g4
g42
tp4466
I73
s(g6
g77
g31
tp4467
I2
s(g9
g40
g26
tp4468
I5
s(g5
g4
g8
tp4469
I393
s(g5
g26
g4
tp4470
I49
s(g21
g5
g16
tp4471
I46
s(g24
g12
g39
tp4472
I1
s(g15
g4
g36
tp4473
I7
s(g5
g67
g24
tp4474
I2
s(g31
g155
g9
tp4475
I38
s(g6
g24
g12
tp4476
I33
s(g16
g9
g5
tp4477
I400
s(g31
g5
g47
tp4478
I77
s(g23
g21
g14
tp4479
I321
s(g10
g10
g16
tp4480
I116
s(g8
g24
g4
tp4481
I3
s(g10
g16
g4
tp4482
I16
s(g26
g39
g4
tp4483
I16
s(g31
g4
g26
tp4484
I46
s(g21
g4
g5
tp4485
I29
s(g6
g5
g26
tp4486
I263
s(g266
g12
tp4487
I9959
s(g155
g47
g24
tp4488
I1
s(g47
g23
g4
tp4489
I157
s(g6
g47
g40
tp4490
I10
s(g14
g8
g42
tp4491
I1
s(g14
g40
g47
tp4492
I3
s(g6
g14
g42
tp4493
I1
s(g31
g39
g5
tp4494
I1
s(g47
g14
g31
tp4495
I3
s(g77
g47
g9
tp4496
I80
s(g31
g14
g16
tp4497
I4
s(g9
g8
g8
tp4498
I508
s(g9
g31
g26
tp4499
I383
s(g6
g21
g9
tp4500
I11
s(g40
g24
g23
tp4501
I2
s(g16
g21
g36
tp4502
I2
s(g31
g24
g8
tp4503
I6
s(g42
g24
g16
tp4504
I129
s(g18
g16
g10
tp4505
I14
s(g9
g31
g31
tp4506
I69
s(g40
g4
g42
tp4507
I5
s(g18
g47
g26
tp4508
I9
s(g42
g21
g6
tp4509
I1
s(g6
g12
g6
tp4510
I8
s(g6
g4
g21
tp4511
I76
s(g9
g14
g6
tp4512
I71
s(g23
g4
g9
tp4513
I3
s(g6
g16
g18
tp4514
I110
s(g47
g14
g9
tp4515
I39
s(g47
g4
g5
tp4516
I111
s(g12
g47
g26
tp4517
I20
s(g47
g26
g47
tp4518
I239
s(g47
g47
g36
tp4519
I6
s(g24
g14
g42
tp4520
I58
s(g39
g77
g4
tp4521
I1
s(g6
g39
g21
tp4522
I5
s(g24
g4
g31
tp4523
I1281
s(g9
g9
g36
tp4524
I107
s(g9
g36
g23
tp4525
I142
s(g8
g23
g4
tp4526
I67
s(g40
g12
g47
tp4527
I2
s(g42
g8
g9
tp4528
I93
s(g8
g8
g10
tp4529
I6
s(g12
g8
g10
tp4530
I1
s(g36
g36
g14
tp4531
I3
s(g47
g77
g40
tp4532
I21
s(g16
g8
g16
tp4533
I441
s(g5
g8
g39
tp4534
I17
s(g42
g42
g21
tp4535
I116
s(g16
g42
g23
tp4536
I43
s(g16
g21
g9
tp4537
I31
s(g4
g67
g14
tp4538
I21
s(g4
g26
g47
tp4539
I733
s(g47
g14
g8
tp4540
I2
s(g4
g8
g31
tp4541
I2
s(g14
g9
g5
tp4542
I4112
s(g16
g47
g18
tp4543
I202
s(g39
g26
g24
tp4544
I1
s(g42
g21
g16
tp4545
I382
s(g5
g23
g4
tp4546
I42
s(g9
g42
g8
tp4547
I344
s(g4
g14
g31
tp4548
I6
s(g67
g16
g77
tp4549
I6
s(g77
g47
g5
tp4550
I1
s(g9
g6
g51
tp4551
I1
s(g23
g16
g8
tp4552
I582
s(g6
g16
g42
tp4553
I20
s(g42
g9
g31
tp4554
I229
s(g47
g12
g9
tp4555
I221
s(g47
g33
g40
tp4556
I1
s(g21
g77
g8
tp4557
I66
s(g36
g47
g77
tp4558
I54
s(g31
g26
g16
tp4559
I202
s(g155
g5
g16
tp4560
I83
s(g42
g9
g15
tp4561
I4
s(g12
g4
g6
tp4562
I276
s(g4
g26
g9
tp4563
I81
s(g42
g47
g4
tp4564
I416
s(g31
g6
g23
tp4565
I523
s(g77
g4
g6
tp4566
I34
s(g21
g23
g40
tp4567
I19
s(g21
g12
g9
tp4568
I130
s(g77
g18
g4
tp4569
I58
s(g5
g42
g42
tp4570
I214
s(g12
g47
g40
tp4571
I39
s(g8
g14
g4
tp4572
I5
s(g23
g9
g14
tp4573
I16
s(g36
g16
g23
tp4574
I64
s(g31
g39
g10
tp4575
I1
s(g21
g16
g51
tp4576
I64
s(g31
g10
g31
tp4577
I1
s(g24
g16
g42
tp4578
I186
s(g51
g16
g42
tp4579
I26
s(g42
g47
g77
tp4580
I539
s(g21
g14
g31
tp4581
I2
s(g12
g4
g42
tp4582
I8
s(g47
g12
g14
tp4583
I14
s(g4
g31
g51
tp4584
I5
s(g40
g47
g14
tp4585
I6
s(g47
g40
g24
tp4586
I30
s(g9
g47
g31
tp4587
I13
s(g155
g9
g5
tp4588
I37
s(g4
g15
g21
tp4589
I242
s(g8
g14
g77
tp4590
I4
s(g51
g47
g40
tp4591
I2
s(g24
g23
g5
tp4592
I1
s(g14
g6
g23
tp4593
I214
s(g23
g77
g21
tp4594
I1
s(g6
g18
g16
tp4595
I4
s(g36
g36
g9
tp4596
I38
s(g26
g21
g4
tp4597
I306
s(g23
g16
g40
tp4598
I1
s(g9
g6
g16
tp4599
I167
s(g14
g31
g26
tp4600
I6
s(g42
g47
g51
tp4601
I1
s(g9
g15
g24
tp4602
I1
s(g31
g10
g9
tp4603
I3
s(g42
g24
g6
tp4604
I9
s(g4
g24
g9
tp4605
I4
s(g6
g47
g5
tp4606
I17
s(g10
g47
g31
tp4607
I176
s(g4
g36
g36
tp4608
I219
s(g42
g23
g5
tp4609
I37
s(g42
g9
g4
tp4610
I1
s(g10
g77
g5
tp4611
I7
s(g9
g26
g39
tp4612
I704
s(g9
g8
g42
tp4613
I1
s(g4
g39
g39
tp4614
I1
s(g39
g5
g14
tp4615
I1
s(g24
g47
g10
tp4616
I3
s(g77
g12
g4
tp4617
I30
s(g155
g5
g21
tp4618
I34
s(g16
g47
g21
tp4619
I218
s(g31
g15
g16
tp4620
I203
s(g4
g42
g16
tp4621
I65
s(g4
g21
g9
tp4622
I291
s(g6
g16
g31
tp4623
I636
s(g9
g6
g36
tp4624
I1
s(g9
g31
g21
tp4625
I4
s(g47
g40
g10
tp4626
I4
s(g39
g9
g9
tp4627
I1
s(g9
g40
g8
tp4628
I244
s(g16
g51
g31
tp4629
I1
s(g36
g5
g23
tp4630
I36
s(g4
g26
g33
tp4631
I20
s(g8
g51
g4
tp4632
I2
s(g16
g77
g77
tp4633
I263
s(g8
g26
g5
tp4634
I22
s(g47
g31
g18
tp4635
I49
s(g16
g26
g23
tp4636
I221
s(g31
g23
g15
tp4637
I2
s(g8
g12
g6
tp4638
I2
s(g8
g77
g18
tp4639
I1
s(g14
g6
g26
tp4640
I1
s(g12
g47
g14
tp4641
I18
s(g155
g5
g6
tp4642
I602
s(g6
g5
g39
tp4643
I1
s(g9
g5
g39
tp4644
I1
s(g4
g12
g23
tp4645
I1
s(g77
g40
g4
tp4646
I35
s(g14
g47
g8
tp4647
I85
s(g4
g21
g24
tp4648
I8
s(g6
g16
g12
tp4649
I211
s(g23
g12
g42
tp4650
I1
s(g21
g47
g18
tp4651
I190
s(g9
g77
g42
tp4652
I1
s(g9
g12
g9
tp4653
I44
s(g77
g23
g12
tp4654
I1
s(g8
g36
g40
tp4655
I13
s(g6
g36
g8
tp4656
I1
s(g12
g12
g10
tp4657
I1
s(g4
g21
g47
tp4658
I1929
s(g4
g10
g23
tp4659
I1
s(g40
g4
g8
tp4660
I320
s(g77
g21
g14
tp4661
I54
s(g5
g6
g21
tp4662
I2
s(g16
g31
g39
tp4663
I751
s(g23
g5
g42
tp4664
I52
s(g47
g21
g15
tp4665
I213
s(g6
g24
g47
tp4666
I2105
s(g9
g9
g9
tp4667
I28
s(g6
g10
g31
tp4668
I55
s(g9
g10
g47
tp4669
I130
s(g12
g6
g6
tp4670
I1
s(g16
g77
g14
tp4671
I3
s(g67
g42
g47
tp4672
I216
s(g47
g14
g36
tp4673
I1
s(g23
g16
g42
tp4674
I70
s(g26
g9
g8
tp4675
I417
s(g39
g9
g23
tp4676
I3
s(g16
g26
g26
tp4677
I11
s(g8
g77
g23
tp4678
I1
s(g24
g9
g36
tp4679
I5
s(g8
g4
g39
tp4680
I19
s(g5
g77
g10
tp4681
I13
s(g21
g16
g18
tp4682
I194
s(g4
g77
g18
tp4683
I140
s(g24
g5
g10
tp4684
I11
s(g47
g42
g9
tp4685
I88
s(g24
g47
g9
tp4686
I194
s(g10
g47
g40
tp4687
I18
s(g14
g47
g21
tp4688
I103
s(g40
g9
g40
tp4689
I16
s(g16
g16
g4
tp4690
I3
s(g23
g24
g5
tp4691
I155
s(g6
g40
g47
tp4692
I227
s(g67
g26
g21
tp4693
I4
s(g8
g16
g4
tp4694
I167
s(g8
g14
g24
tp4695
I1
s(g6
g18
g47
tp4696
I1
s(g9
g4
g24
tp4697
I1
s(g23
g4
g15
tp4698
I72
s(g40
g9
g21
tp4699
I1041
s(g9
g10
g36
tp4700
I1
s(g21
g47
g16
tp4701
I30
s(g21
g9
g8
tp4702
I312
s(g6
g77
g4
tp4703
I16
s(g6
g9
g26
tp4704
I236
s(g5
g77
g47
tp4705
I274
s(g9
g31
g18
tp4706
I83
s(g40
g21
g4
tp4707
I16
s(g6
g47
g4
tp4708
I232
s(g8
g23
g16
tp4709
I117
s(g24
g16
g4
tp4710
I20
s(g12
g4
g12
tp4711
I8
s(g21
g12
g8
tp4712
I12
s(g4
g67
g4
tp4713
I9
s(g18
g4
g31
tp4714
I143
s(g47
g4
g12
tp4715
I353
s(g36
g4
g23
tp4716
I140
s(g24
g47
g14
tp4717
I1635
s(g77
g24
g47
tp4718
I8
s(g4
g40
g77
tp4719
I1
s(g67
g26
g5
tp4720
I24
s(g10
g40
g47
tp4721
I1
s(g18
g9
g6
tp4722
I9
s(g5
g5
g26
tp4723
I1
s(g4
g77
g16
tp4724
I312
s(g18
g26
g9
tp4725
I1
s(g26
g47
g23
tp4726
I16
s(g24
g8
g5
tp4727
I33
s(g5
g6
g8
tp4728
I180
s(g31
g6
g40
tp4729
I92
s(g36
g21
g9
tp4730
I1351
s(g8
g6
g21
tp4731
I1
s(g16
g12
g24
tp4732
I1
s(g8
g16
g5
tp4733
I8
s(g77
g9
g155
tp4734
I3
s(g10
g21
g14
tp4735
I43
s(g47
g77
g9
tp4736
I159
s(g21
g26
g14
tp4737
I67
s(g26
g39
g14
tp4738
I35
s(g5
g31
g16
tp4739
I382
s(g42
g23
g6
tp4740
I24
s(g33
g5
g9
tp4741
I45
s(g15
g15
g8
tp4742
I111
s(g23
g24
g6
tp4743
I75
s(g16
g31
g26
tp4744
I597
s(g14
g47
g16
tp4745
I5
s(g77
g77
g47
tp4746
I388
s(g4
g40
g26
tp4747
I1
s(g10
g23
g9
tp4748
I1
s(g39
g21
g4
tp4749
I74
s(g42
g6
g21
tp4750
I1
s(g42
g4
g16
tp4751
I227
s(g10
g9
g26
tp4752
I3
s(g42
g47
g8
tp4753
I126
s(g77
g47
g12
tp4754
I135
s(g16
g31
g31
tp4755
I315
s(g47
g21
g26
tp4756
I228
s(g67
g18
g16
tp4757
I1
s(g4
g40
g31
tp4758
I42
s(g9
g9
g26
tp4759
I10
s(g15
g5
g8
tp4760
I55
s(g24
g16
g15
tp4761
I171
s(g18
g9
g16
tp4762
I360
s(g40
g6
g42
tp4763
I16
s(g31
g9
g18
tp4764
I44
s(g39
g36
g9
tp4765
I1
s(g16
g4
g23
tp4766
I222
s(g77
g5
g21
tp4767
I100
s(g36
g23
g26
tp4768
I1
s(g77
g4
g18
tp4769
I47
s(g23
g9
g33
tp4770
I1
s(g10
g21
g9
tp4771
I385
s(g16
g31
g14
tp4772
I59
s(g4
g77
g9
tp4773
I58
s(g77
g9
g23
tp4774
I9
s(g77
g5
g15
tp4775
I4
s(g77
g6
g39
tp4776
I1
s(g40
g36
g8
tp4777
I1
s(g36
g4
g21
tp4778
I162
s(g16
g6
g36
tp4779
I22
s(g23
g4
g6
tp4780
I133
s(g8
g39
g14
tp4781
I9
s(g5
g6
g31
tp4782
I29
s(g4
g26
g40
tp4783
I4
s(g10
g9
g77
tp4784
I209
s(g10
g23
g8
tp4785
I6
s(g42
g6
g5
tp4786
I9
s(g16
g16
g23
tp4787
I3
s(g10
g4
g5
tp4788
I17
s(g21
g9
g15
tp4789
I173
s(g26
g21
g42
tp4790
I2
s(g47
g12
g26
tp4791
I1
s(g12
g47
g9
tp4792
I95
s(g67
g14
g6
tp4793
I2
s(g26
g26
g5
tp4794
I70
s(g14
g9
g4
tp4795
I1
s(g9
g31
g12
tp4796
I8
s(g23
g51
g16
tp4797
I1
s(g16
g4
g6
tp4798
I26
s(g21
g5
g8
tp4799
I71
s(g266
g23
tp4800
I38008
s(g47
g39
g15
tp4801
I2
s(g23
g26
g8
tp4802
I1
s(g47
g8
g42
tp4803
I164
s(g16
g10
g31
tp4804
I3
s(g9
g14
g8
tp4805
I38
s(g8
g77
g16
tp4806
I111
s(g8
g16
g6
tp4807
I436
s(g10
g9
g18
tp4808
I89
s(g18
g47
g36
tp4809
I1
s(g12
g26
g4
tp4810
I3
s(g9
g24
g16
tp4811
I6
s(g47
g23
g9
tp4812
I35
s(g26
g8
g47
tp4813
I381
s(g21
g6
g31
tp4814
I1
s(g36
g16
g21
tp4815
I477
s(g15
g5
g14
tp4816
I25
s(g24
g40
g4
tp4817
I15
s(g9
g42
g24
tp4818
I120
s(g42
g4
g15
tp4819
I84
s(g31
g9
g155
tp4820
I2
s(g4
g21
g42
tp4821
I78
s(g15
g47
g47
tp4822
I4
s(g8
g14
g40
tp4823
I2
s(g21
g26
g5
tp4824
I57
s(g4
g9
g16
tp4825
I1
s(g77
g5
g67
tp4826
I1
s(g16
g21
g23
tp4827
I110
s(g26
g39
g5
tp4828
I4
s(g51
g16
g39
tp4829
I2
s(g77
g77
g24
tp4830
I4
s(g21
g5
g51
tp4831
I1
s(g4
g36
g14
tp4832
I1
s(g6
g42
g10
tp4833
I1
s(g47
g23
g31
tp4834
I14
s(g15
g9
g9
tp4835
I307
s(g4
g18
g47
tp4836
I1648
s(g39
g12
g16
tp4837
I2
s(g21
g9
g42
tp4838
I359
s(g31
g24
g9
tp4839
I12
s(g47
g39
g47
tp4840
I32
s(g23
g47
g6
tp4841
I457
s(g36
g16
g6
tp4842
I48
s(g26
g26
g16
tp4843
I33
s(g9
g26
g21
tp4844
I28
s(g9
g24
g9
tp4845
I28
s(g6
g5
g6
tp4846
I87
s(g47
g47
g15
tp4847
I5
s(g31
g9
g47
tp4848
I5
s(g8
g42
g16
tp4849
I25
s(g24
g9
g31
tp4850
I179
s(g8
g14
g12
tp4851
I1
s(g6
g39
g6
tp4852
I26
s(g23
g18
g4
tp4853
I3
s(g31
g23
g51
tp4854
I1
s(g42
g5
g15
tp4855
I1
s(g9
g9
g15
tp4856
I3
s(g18
g4
g24
tp4857
I1
s(g51
g47
g31
tp4858
I57
s(g47
g77
g23
tp4859
I2
s(g24
g5
g6
tp4860
I70
s(g36
g8
g47
tp4861
I159
s(g8
g36
g9
tp4862
I196
s(g12
g21
g26
tp4863
I3
s(g5
g15
g24
tp4864
I1522
s(g23
g47
g23
tp4865
I9
s(g8
g47
g10
tp4866
I18
s(g4
g23
g10
tp4867
I6
s(g21
g36
g4
tp4868
I21
s(g15
g24
g16
tp4869
I35
s(g5
g31
g9
tp4870
I5
s(g24
g42
g16
tp4871
I1
s(g31
g23
g14
tp4872
I81
s(g40
g52
tp4873
I3350
s(g24
g5
g12
tp4874
I218
s(g10
g42
g4
tp4875
I1
s(g15
g5
g47
tp4876
I131
s(g8
g5
g24
tp4877
I5
s(g23
g5
g47
tp4878
I25
s(g40
g8
g16
tp4879
I34
s(g6
g4
g77
tp4880
I27
s(g33
g5
g47
tp4881
I536
s(g16
g26
g51
tp4882
I2
s(g4
g10
g24
tp4883
I1
s(g23
g51
g47
tp4884
I4
s(g67
g5
g6
tp4885
I3
s(g5
g47
g10
tp4886
I12
s(g9
g10
g31
tp4887
I1
s(g42
g31
g9
tp4888
I19
s(g40
g24
g4
tp4889
I1187
s(g12
g42
g6
tp4890
I65
s(g26
g77
g26
tp4891
I1
s(g26
g31
g4
tp4892
I1
s(g9
g21
g10
tp4893
I40
s(g4
g36
g47
tp4894
I85
s(g18
g4
g5
tp4895
I16
s(g21
g16
g9
tp4896
I280
s(g4
g6
g24
tp4897
I286
s(g31
g4
g31
tp4898
I94
s(g9
g16
g21
tp4899
I5
s(g24
g77
g4
tp4900
I18
s(g26
g21
g9
tp4901
I438
s(g47
g8
g4
tp4902
I239
s(g77
g31
g4
tp4903
I6
s(g26
g6
g9
tp4904
I3
s(g9
g31
g33
tp4905
I6
s(g15
g24
g47
tp4906
I88
s(g155
g16
g4
tp4907
I1
s(g10
g9
g67
tp4908
I41
s(g9
g40
g16
tp4909
I177
s(g40
g16
g12
tp4910
I8
s(g67
g5
g21
tp4911
I4
s(g77
g10
g4
tp4912
I6
s(g5
g10
g36
tp4913
I2
s(g18
g26
g21
tp4914
I1
s(g26
g5
g51
tp4915
I2
s(g24
g6
g23
tp4916
I3
s(g36
g5
g6
tp4917
I80
s(g23
g51
g39
tp4918
I2
s(g8
g47
g77
tp4919
I1068
s(g47
g10
g21
tp4920
I79
s(g9
g21
g26
tp4921
I132
s(g12
g5
g8
tp4922
I137
s(g14
g31
g31
tp4923
I7
s(g16
g10
g5
tp4924
I87
s(g21
g12
g23
tp4925
I3
s(g39
g47
g23
tp4926
I140
s(g40
g77
g23
tp4927
I1
s(g12
g9
g5
tp4928
I367
s(g18
g6
g39
tp4929
I20
s(g5
g4
g10
tp4930
I8
s(g47
g8
g77
tp4931
I186
s(g4
g9
g23
tp4932
I2
s(g36
g26
g4
tp4933
I2
s(g14
g10
g9
tp4934
I41
s(g23
g16
g15
tp4935
I86
s(g39
g40
g47
tp4936
I5
s(g24
g4
g51
tp4937
I13
s(g77
g6
g26
tp4938
I9
s(g42
g24
g21
tp4939
I22
s(g12
g4
g26
tp4940
I196
s(g39
g5
g42
tp4941
I3
s(g8
g47
g18
tp4942
I233
s(g77
g23
g31
tp4943
I1
s(g10
g9
g8
tp4944
I77
s(g8
g15
g4
tp4945
I5
s(g9
g15
g12
tp4946
I4
s(g5
g31
g33
tp4947
I1
s(g31
g26
g4
tp4948
I20
s(g15
g14
g12
tp4949
I3
s(g33
g52
tp4950
I10
s(g24
g47
g21
tp4951
I5568
s(g40
g40
g16
tp4952
I1
s(g14
g8
g9
tp4953
I16
s(g8
g5
g21
tp4954
I58
s(g23
g6
g47
tp4955
I72
s(g14
g155
g5
tp4956
I12
s(g8
g5
g26
tp4957
I95
s(g4
g42
g23
tp4958
I121
s(g6
g6
g14
tp4959
I10
s(g51
g6
g26
tp4960
I13
s(g67
g33
g5
tp4961
I3
s(g14
g36
g5
tp4962
I4
s(g51
g5
g31
tp4963
I5
s(g21
g14
g4
tp4964
I18
s(g9
g9
g51
tp4965
I5
s(g5
g21
g42
tp4966
I139
s(g8
g4
g31
tp4967
I616
s(g21
g47
g12
tp4968
I503
s(g21
g21
g9
tp4969
I283
s(g47
g15
g14
tp4970
I9
s(g77
g16
g24
tp4971
I1
s(g4
g26
g23
tp4972
I656
s(g8
g14
g23
tp4973
I115
s(g155
g9
g18
tp4974
I1
s(g14
g10
g47
tp4975
I52
s(g9
g8
g9
tp4976
I307
s(g21
g4
g155
tp4977
I2
s(g77
g4
g31
tp4978
I179
s(g47
g21
g18
tp4979
I313
s(g16
g77
g26
tp4980
I3
s(g5
g23
g5
tp4981
I36
s(g12
g42
g24
tp4982
I38
s(g77
g16
g6
tp4983
I588
s(g15
g47
g12
tp4984
I30
s(g31
g47
g18
tp4985
I407
s(g21
g5
g4
tp4986
I18
s(g6
g4
g40
tp4987
I153
s(g4
g6
g12
tp4988
I24
s(g21
g47
g36
tp4989
I260
s(g4
g9
g21
tp4990
I17
s(g36
g9
g4
tp4991
I10
s(g31
g14
g23
tp4992
I150
s(g12
g9
g26
tp4993
I83
s(g8
g9
g16
tp4994
I12
s(g8
g5
g77
tp4995
I186
s(g31
g26
g21
tp4996
I80
s(g24
g52
tp4997
I6879
s(g42
g14
g31
tp4998
I4
s(g15
g9
g21
tp4999
I176
s(g15
g42
g47
tp5000
I1
s(g16
g15
g31
tp5001
I270
s(g21
g21
g4
tp5002
I61
s(g67
g10
g4
tp5003
I1
s(g5
g77
g14
tp5004
I56
s(g9
g39
g4
tp5005
I64
s(g14
g8
g67
tp5006
I4
s(g9
g14
g16
tp5007
I18
s(g77
g16
g21
tp5008
I210
s(g9
g4
g6
tp5009
I57
s(g21
g31
g23
tp5010
I12
s(g21
g42
g4
tp5011
I4
s(g47
g5
g31
tp5012
I10
s(g10
g5
g12
tp5013
I10
s(g23
g6
g26
tp5014
I6
s(g15
g36
g5
tp5015
I11
s(g4
g16
g8
tp5016
I334
s(g21
g5
g10
tp5017
I55
s(g67
g42
g5
tp5018
I1
s(g36
g14
g9
tp5019
I2
s(g8
g4
g42
tp5020
I78
s(g47
g21
g8
tp5021
I106
s(g4
g155
g9
tp5022
I40
s(g23
g4
g18
tp5023
I7
s(g31
g47
g8
tp5024
I118
s(g51
g16
g77
tp5025
I1
s(g31
g9
g12
tp5026
I73
s(g21
g39
g16
tp5027
I77
s(g21
g5
g9
tp5028
I2
s(g67
g4
g6
tp5029
I10
s(g5
g36
g9
tp5030
I7
s(g18
g8
g4
tp5031
I1
s(g77
g4
g8
tp5032
I37
s(g21
g47
g39
tp5033
I8
s(g67
g47
g21
tp5034
I15
s(g10
g5
g36
tp5035
I7
s(g21
g5
g15
tp5036
I61
s(g16
g8
g23
tp5037
I87
s(g47
g9
g40
tp5038
I3
s(g16
g15
g16
tp5039
I175
s(g12
g31
g42
tp5040
I1
s(g47
g18
g14
tp5041
I2
s(g36
g47
g10
tp5042
I20
s(g16
g4
g15
tp5043
I28
s(g47
g5
g12
tp5044
I33
s(g26
g4
g36
tp5045
I143
s(g10
g36
g5
tp5046
I1
s(g6
g9
g10
tp5047
I26
s(g4
g16
g18
tp5048
I2
s(g42
g12
g47
tp5049
I51
s(g40
g9
g10
tp5050
I1
s(g15
g9
g23
tp5051
I472
s(g155
g4
g16
tp5052
I3
s(g9
g77
g21
tp5053
I5
s(g40
g6
g5
tp5054
I1
s(g8
g8
g36
tp5055
I1
s(g155
g9
g8
tp5056
I15
s(g47
g16
g6
tp5057
I20
s(g23
g4
g8
tp5058
I568
s(g15
g4
g51
tp5059
I48
s(g14
g8
g18
tp5060
I6
s(g9
g31
g9
tp5061
I88
s(g16
g39
g77
tp5062
I1
s(g4
g155
g16
tp5063
I2
s(g77
g47
g15
tp5064
I21
s(g77
g4
g10
tp5065
I16
s(g36
g14
g16
tp5066
I18
s(g8
g18
g47
tp5067
I230
s(g42
g16
g8
tp5068
I166
s(g15
g4
g26
tp5069
I1
s(g42
g42
g4
tp5070
I39
s(g10
g5
g39
tp5071
I2
s(g47
g23
g24
tp5072
I537
s(g47
g67
g24
tp5073
I25
s(g23
g36
g5
tp5074
I34
s(g8
g23
g14
tp5075
I36
s(g9
g36
g9
tp5076
I14
s(g47
g77
g8
tp5077
I50
s(g21
g77
g16
tp5078
I152
s(g42
g21
g4
tp5079
I112
s(g4
g24
g12
tp5080
I3
s(g5
g21
g77
tp5081
I78
s(g18
g16
g77
tp5082
I267
s(g16
g9
g8
tp5083
I59
s(g21
g155
g9
tp5084
I1
s(g4
g15
g9
tp5085
I134
s(g4
g5
g47
tp5086
I13
s(g42
g14
g155
tp5087
I2
s(g12
g6
g9
tp5088
I27
s(g8
g6
g47
tp5089
I139
s(g6
g23
g9
tp5090
I770
s(g5
g31
g40
tp5091
I24
s(g9
g77
g24
tp5092
I2
s(g12
g9
g18
tp5093
I275
s(g6
g9
g6
tp5094
I2
s(g39
g16
g47
tp5095
I21
s(g39
g47
g40
tp5096
I3
s(g23
g36
g21
tp5097
I2
s(g47
g12
g21
tp5098
I2
s(g8
g47
g8
tp5099
I10
s(g21
g16
g15
tp5100
I694
s(g77
g77
g5
tp5101
I3
s(g6
g8
g14
tp5102
I326
s(g36
g9
g67
tp5103
I4
s(g39
g9
g5
tp5104
I2
s(g24
g14
g26
tp5105
I5
s(g155
g16
g42
tp5106
I1
s(g9
g14
g12
tp5107
I3
s(g6
g16
g67
tp5108
I94
s(g16
g4
g77
tp5109
I3
s(g24
g8
g4
tp5110
I2
s(g77
g12
g9
tp5111
I57
s(g9
g40
g10
tp5112
I5
s(g51
g5
g24
tp5113
I1
s(g23
g6
g9
tp5114
I18
s(g31
g36
g21
tp5115
I11
s(g5
g26
g10
tp5116
I1
s(g10
g155
g47
tp5117
I135
s(g14
g40
g4
tp5118
I26
s(g6
g24
g8
tp5119
I12
s(g31
g5
g77
tp5120
I9
s(g21
g9
g5
tp5121
I1396
s(g21
g4
g42
tp5122
I212
s(g8
g26
g24
tp5123
I64
s(g77
g9
g26
tp5124
I74
s(g16
g9
g31
tp5125
I3584
s(g67
g16
g10
tp5126
I4
s(g14
g12
g6
tp5127
I2
s(g47
g8
g9
tp5128
I166
s(g16
g4
g26
tp5129
I16
s(g5
g31
g10
tp5130
I15
s(g9
g40
g4
tp5131
I201
s(g15
g77
g42
tp5132
I1
s(g23
g40
g9
tp5133
I395
s(g18
g8
g6
tp5134
I1
s(g8
g42
g8
tp5135
I4
s(g39
g47
g8
tp5136
I47
s(g12
g9
g12
tp5137
I209
s(g16
g21
g21
tp5138
I73
s(g23
g24
g24
tp5139
I1
s(g36
g5
g8
tp5140
I559
s(g42
g47
g15
tp5141
I6
s(g16
g9
g6
tp5142
I14
s(g51
g39
g23
tp5143
I1
s(g67
g40
g47
tp5144
I3
s(g47
g155
g47
tp5145
I13
s(g31
g14
g36
tp5146
I1
s(g51
g47
g12
tp5147
I4
s(g31
g15
g4
tp5148
I22
s(g24
g4
g26
tp5149
I18
s(g42
g12
g16
tp5150
I1
s(g18
g77
g6
tp5151
I1
s(g16
g42
g42
tp5152
I188
s(g10
g6
g23
tp5153
I98
s(g42
g36
g16
tp5154
I2
s(g6
g16
g5
tp5155
I5
s(g40
g6
g14
tp5156
I4
s(g12
g31
g8
tp5157
I6
s(g6
g12
g5
tp5158
I12
s(g10
g14
g51
tp5159
I2
s(g12
g26
g18
tp5160
I5
s(g9
g9
g21
tp5161
I479
s(g77
g9
g12
tp5162
I87
s(g36
g47
g23
tp5163
I38
s(g23
g24
g9
tp5164
I1237
s(g24
g21
g9
tp5165
I631
s(g5
g16
g31
tp5166
I64
s(g10
g16
g31
tp5167
I181
s(g24
g10
g4
tp5168
I29
s(g15
g16
g77
tp5169
I6
s(g5
g15
g6
tp5170
I34
s(g77
g47
g33
tp5171
I7
s(g18
g77
g42
tp5172
I1
s(g4
g23
g14
tp5173
I4
s(g155
g5
g77
tp5174
I50
s(g5
g16
g47
tp5175
I56
s(g5
g12
g16
tp5176
I38
s(g26
g5
g6
tp5177
I142
s(g39
g12
g77
tp5178
I1
s(g23
g77
g4
tp5179
I2
s(g5
g31
g77
tp5180
I1564
s(g26
g26
g10
tp5181
I2
s(g5
g47
g47
tp5182
I131
s(g12
g47
g4
tp5183
I385
s(g39
g4
g51
tp5184
I7
s(g5
g23
g12
tp5185
I2
s(g15
g12
g5
tp5186
I2
s(g36
g36
g47
tp5187
I698
s(g40
g42
g9
tp5188
I3
s(g23
g8
g9
tp5189
I5
s(g31
g16
g47
tp5190
I133
s(g9
g10
g6
tp5191
I95
s(g4
g31
g31
tp5192
I239
s(g6
g39
g47
tp5193
I212
s(g8
g8
g8
tp5194
I5
s(g23
g24
g36
tp5195
I17
s(g24
g21
g6
tp5196
I2
s(g8
g47
g16
tp5197
I26
s(g4
g12
g10
tp5198
I215
s(g77
g9
g40
tp5199
I710
s(g36
g36
g8
tp5200
I46
s(g9
g16
g77
tp5201
I63
s(g9
g26
g47
tp5202
I97
s(g26
g9
g23
tp5203
I29
s(g47
g12
g31
tp5204
I19
s(g6
g42
g21
tp5205
I180
s(g24
g31
g47
tp5206
I8
s(g26
g16
g77
tp5207
I111
s(g5
g16
g8
tp5208
I142
s(g26
g4
g31
tp5209
I927
s(g42
g9
g77
tp5210
I9
s(g15
g16
g36
tp5211
I13
s(g16
g15
g5
tp5212
I71
s(g4
g14
g4
tp5213
I11
s(g18
g21
g26
tp5214
I1
s(g21
g51
g5
tp5215
I1
s(g6
g47
g8
tp5216
I686
s(g4
g14
g8
tp5217
I19
s(g26
g8
g4
tp5218
I318
s(g16
g23
g21
tp5219
I20
s(g4
g23
g40
tp5220
I3
s(g5
g4
g26
tp5221
I4
s(g36
g47
g12
tp5222
I23
s(g47
g31
g14
tp5223
I16
s(g31
g9
g5
tp5224
I219
s(g47
g36
g36
tp5225
I149
s(g24
g12
g4
tp5226
I7
s(g42
g23
g14
tp5227
I47
s(g155
g15
g6
tp5228
I1
s(g9
g47
g21
tp5229
I2
s(g16
g6
g21
tp5230
I6
s(g21
g16
g8
tp5231
I182
s(g12
g16
g31
tp5232
I1002
s(g15
g12
g6
tp5233
I1
s(g8
g8
g31
tp5234
I6
s(g36
g8
g5
tp5235
I86
s(g47
g40
g16
tp5236
I72
s(g31
g16
g26
tp5237
I358
s(g21
g8
g9
tp5238
I23
s(g12
g21
g6
tp5239
I1
s(g47
g67
g5
tp5240
I13
s(g12
g4
g5
tp5241
I7
s(g14
g23
g5
tp5242
I1
s(g47
g47
g12
tp5243
I304
s(g12
g16
g26
tp5244
I156
s(g10
g36
g12
tp5245
I1
s(g77
g12
g47
tp5246
I4
s(g12
g47
g5
tp5247
I4
s(g42
g42
g14
tp5248
I61
s(g42
g6
g14
tp5249
I39
s(g9
g5
g15
tp5250
I1302
s(g12
g77
g6
tp5251
I2
s(g67
g52
tp5252
I337
s(g31
g77
g36
tp5253
I8
s(g4
g21
g5
tp5254
I3
s(g4
g42
g39
tp5255
I2
s(g4
g39
g40
tp5256
I2
s(g15
g6
g24
tp5257
I2
s(g14
g23
g16
tp5258
I9
s(g5
g12
g12
tp5259
I72
s(g16
g23
g47
tp5260
I807
s(g8
g36
g4
tp5261
I2
s(g8
g51
g47
tp5262
I1
s(g6
g47
g31
tp5263
I514
s(g9
g67
g16
tp5264
I39
s(g31
g77
g12
tp5265
I56
s(g31
g15
g24
tp5266
I4
s(g16
g4
g8
tp5267
I358
s(g10
g9
g6
tp5268
I15
s(g23
g16
g5
tp5269
I3
s(g16
g51
g51
tp5270
I31
s(g24
g4
g14
tp5271
I11
s(g12
g47
g42
tp5272
I4
s(g14
g47
g4
tp5273
I288
s(g4
g6
g31
tp5274
I1
s(g31
g10
g16
tp5275
I1
s(g40
g23
g24
tp5276
I7
s(g47
g14
g47
tp5277
I397
s(g31
g42
g5
tp5278
I1
s(g6
g10
g26
tp5279
I1
s(g31
g23
g36
tp5280
I7
s(g9
g9
g39
tp5281
I1333
s(g15
g14
g31
tp5282
I1
s(g5
g77
g15
tp5283
I103
s(g40
g12
g9
tp5284
I2
s(g14
g42
g9
tp5285
I14
s(g9
g4
g21
tp5286
I174
s(g12
g16
g47
tp5287
I21
s(g16
g4
g39
tp5288
I7
s(g21
g21
g24
tp5289
I6
s(g12
g23
g47
tp5290
I1
s(g47
g10
g8
tp5291
I26
s(g40
g16
g21
tp5292
I30
s(g24
g21
g16
tp5293
I174
s(g39
g47
g77
tp5294
I942
s(g14
g36
g47
tp5295
I1
s(g8
g6
g23
tp5296
I19
s(g4
g14
g16
tp5297
I168
s(g6
g40
g8
tp5298
I1
s(g266
g33
tp5299
I793
s(g18
g47
g23
tp5300
I23
s(g5
g47
g77
tp5301
I73
s(g40
g16
g15
tp5302
I33
s(g40
g23
g4
tp5303
I1
s(g26
g39
g40
tp5304
I31
s(g5
g23
g21
tp5305
I20
s(g16
g16
g47
tp5306
I1
s(g47
g21
g36
tp5307
I226
s(g47
g14
g21
tp5308
I2
s(g9
g10
g8
tp5309
I107
s(g4
g77
g21
tp5310
I20
s(g31
g15
g31
tp5311
I4
s(g5
g4
g15
tp5312
I47
s(g8
g39
g4
tp5313
I8
s(g16
g47
g5
tp5314
I11
s(g8
g36
g5
tp5315
I4
s(g8
g9
g14
tp5316
I27
s(g14
g39
g51
tp5317
I1
s(g47
g31
g5
tp5318
I36
s(g31
g4
g16
tp5319
I41
s(g47
g15
g8
tp5320
I9
s(g21
g47
g67
tp5321
I12
s(g23
g8
g14
tp5322
I532
s(g23
g15
g16
tp5323
I2
s(g47
g42
g8
tp5324
I95
s(g14
g12
g47
tp5325
I16
s(g47
g10
g10
tp5326
I8
s(g5
g77
g16
tp5327
I165
s(g31
g67
g16
tp5328
I36
s(g16
g4
g18
tp5329
I1
s(g31
g51
g4
tp5330
I2
s(g26
g47
g42
tp5331
I174
s(g26
g39
g12
tp5332
I6
s(g15
g6
g23
tp5333
I8
s(g9
g31
g24
tp5334
I2
s(g51
g47
g5
tp5335
I1
s(g4
g77
g47
tp5336
I546
s(g5
g31
g31
tp5337
I175
s(g5
g5
g31
tp5338
I5
s(g21
g9
g67
tp5339
I14
s(g24
g4
g5
tp5340
I33
s(g77
g47
g23
tp5341
I90
s(g24
g47
g12
tp5342
I1162
s(g6
g31
g5
tp5343
I6
s(g40
g9
g5
tp5344
I551
s(g5
g47
g23
tp5345
I27
s(g18
g47
g24
tp5346
I8
s(g26
g23
g26
tp5347
I1
s(g40
g12
g23
tp5348
I1
s(g36
g47
g26
tp5349
I212
s(g9
g16
g8
tp5350
I105
s(g16
g8
g6
tp5351
I71
s(g16
g31
g15
tp5352
I10879
s(g12
g16
g14
tp5353
I1
s(g8
g39
g21
tp5354
I2
s(g12
g4
g40
tp5355
I1
s(g5
g21
g39
tp5356
I165
s(g26
g39
g26
tp5357
I1
s(g4
g5
g67
tp5358
I6
s(g6
g12
g47
tp5359
I39
s(g8
g8
g4
tp5360
I146
s(g47
g9
g5
tp5361
I52
s(g9
g21
g12
tp5362
I608
s(g12
g5
g15
tp5363
I70
s(g12
g39
g16
tp5364
I1
s(g6
g36
g9
tp5365
I15
s(g155
g9
g39
tp5366
I29
s(g8
g9
g42
tp5367
I112
s(g16
g24
g77
tp5368
I1
s(g16
g47
g39
tp5369
I35
s(g77
g4
g15
tp5370
I6
s(g9
g23
g12
tp5371
I11
s(g77
g47
g10
tp5372
I23
s(g10
g4
g14
tp5373
I18
s(g21
g18
g9
tp5374
I45
s(g4
g40
g14
tp5375
I9
s(g5
g39
g12
tp5376
I1
s(g47
g77
g47
tp5377
I107
s(g39
g21
g5
tp5378
I5
s(g77
g5
g18
tp5379
I1
s(g23
g9
g5
tp5380
I95
s(g15
g21
g9
tp5381
I379
s(g12
g36
g47
tp5382
I2
s(g77
g5
g39
tp5383
I1
s(g18
g9
g5
tp5384
I80
s(g16
g6
g155
tp5385
I1
s(g77
g39
g16
tp5386
I1
s(g31
g18
g16
tp5387
I72
s(g67
g47
g77
tp5388
I42
s(g4
g10
g9
tp5389
I770
s(g16
g77
g31
tp5390
I13
s(g9
g39
g9
tp5391
I6
s(g15
g5
g12
tp5392
I25
s(g31
g5
g39
tp5393
I4
s(g42
g4
g6
tp5394
I381
s(g5
g21
g4
tp5395
I207
s(g18
g16
g26
tp5396
I152
s(g6
g4
g8
tp5397
I104
s(g26
g23
g47
tp5398
I157
s(g5
g47
g51
tp5399
I99
s(g4
g36
g21
tp5400
I43
s(g6
g23
g31
tp5401
I5
s(g6
g9
g21
tp5402
I427
s(g31
g4
g47
tp5403
I8
s(g31
g24
g4
tp5404
I46
s(g5
g31
g15
tp5405
I272
s(g39
g16
g36
tp5406
I6
s(g26
g9
g47
tp5407
I2
s(g40
g4
g5
tp5408
I2
s(g9
g39
g8
tp5409
I1
s(g77
g5
g8
tp5410
I118
s(g39
g9
g42
tp5411
I3
s(g26
g9
g5
tp5412
I1006
s(g47
g23
g6
tp5413
I222
s(g31
g52
tp5414
I14802
s(g67
g14
g15
tp5415
I1
s(g42
g5
g47
tp5416
I13
s(g9
g9
g47
tp5417
I3
s(g42
g39
g47
tp5418
I1
s(g77
g5
g4
tp5419
I55
s(g9
g36
g36
tp5420
I779
s(g23
g47
g21
tp5421
I3077
s(g67
g12
g4
tp5422
I2
s(g4
g26
g10
tp5423
I1
s(g31
g21
g5
tp5424
I1
s(g15
g47
g4
tp5425
I20
s(g155
g47
g26
tp5426
I283
s(g23
g39
g4
tp5427
I2
s(g23
g51
g6
tp5428
I12
s(g10
g47
g5
tp5429
I4
s(g51
g4
g23
tp5430
I69
s(g12
g5
g77
tp5431
I39
s(g9
g24
g24
tp5432
I5
s(g21
g9
g47
tp5433
I3
s(g42
g23
g8
tp5434
I13
s(g14
g9
g15
tp5435
I2
s(g5
g77
g8
tp5436
I75
s(g12
g47
g12
tp5437
I202
s(g24
g23
g31
tp5438
I12
s(g23
g14
g42
tp5439
I44
s(g31
g9
g16
tp5440
I62
s(g6
g39
g5
tp5441
I7
s(g39
g39
g47
tp5442
I1
s(g18
g23
g21
tp5443
I1
s(g77
g47
g18
tp5444
I85
s(g8
g26
g4
tp5445
I6
s(g23
g42
g77
tp5446
I1
s(g31
g8
g14
tp5447
I738
s(g21
g77
g39
tp5448
I1
s(g24
g14
g6
tp5449
I62
s(g24
g9
g21
tp5450
I293
s(g16
g6
g39
tp5451
I122
s(g16
g47
g15
tp5452
I6
s(g42
g16
g42
tp5453
I36
s(g12
g26
g26
tp5454
I20
s(g6
g42
g4
tp5455
I181
s(g12
g5
g26
tp5456
I285
s(g8
g12
g9
tp5457
I178
s(g21
g6
g8
tp5458
I40
s(g4
g26
g8
tp5459
I48
s(g5
g77
g9
tp5460
I1
s(g5
g5
g21
tp5461
I1
s(g40
g4
g16
tp5462
I164
s(g8
g5
g51
tp5463
I1
s(g155
g4
g10
tp5464
I6
s(g18
g4
g77
tp5465
I6
s(g8
g5
g39
tp5466
I4
s(g16
g21
g42
tp5467
I13
s(g6
g42
g24
tp5468
I25
s(g16
g8
g24
tp5469
I17
s(g9
g12
g6
tp5470
I81
s(g12
g4
g24
tp5471
I5
s(g24
g23
g77
tp5472
I1
s(g15
g31
g16
tp5473
I81
s(g4
g14
g24
tp5474
I2
s(g4
g21
g16
tp5475
I498
s(g8
g16
g12
tp5476
I185
s(g9
g24
g31
tp5477
I164
s(g5
g36
g47
tp5478
I2
s(g8
g14
g8
tp5479
I1
s(g40
g8
g47
tp5480
I80
s(g16
g39
g24
tp5481
I4
s(g15
g16
g23
tp5482
I37
s(g8
g24
g9
tp5483
I13
s(g42
g5
g36
tp5484
I24
s(g8
g21
g14
tp5485
I2
s(g4
g15
g77
tp5486
I1
s(g10
g47
g12
tp5487
I3
s(g23
g5
g4
tp5488
I144
s(g21
g10
g31
tp5489
I1
s(g155
g47
g40
tp5490
I16
s(g4
g14
g9
tp5491
I12
s(g5
g14
g5
tp5492
I1
s(g33
g5
g4
tp5493
I252
s(g39
g4
g6
tp5494
I4
s(g9
g39
g6
tp5495
I198
s(g77
g42
g9
tp5496
I1
s(g4
g6
g5
tp5497
I88
s(g24
g10
g21
tp5498
I1
s(g8
g9
g4
tp5499
I157
s(g8
g5
g8
tp5500
I4
s(g47
g36
g42
tp5501
I1
s(g47
g15
g4
tp5502
I261
s(g9
g6
g24
tp5503
I16
s(g8
g16
g24
tp5504
I2
s(g21
g4
g47
tp5505
I2
s(g4
g26
g31
tp5506
I1
s(g21
g18
g16
tp5507
I132
s(g47
g26
g6
tp5508
I6
s(g77
g4
g23
tp5509
I149
s(g24
g47
g47
tp5510
I140
s(g16
g77
g5
tp5511
I46
s(g9
g21
g36
tp5512
I6
s(g47
g6
g14
tp5513
I7
s(g21
g6
g16
tp5514
I137
s(g9
g15
g40
tp5515
I78
s(g24
g5
g33
tp5516
I4
s(g12
g21
g4
tp5517
I6
s(g12
g8
g16
tp5518
I1
s(g18
g4
g10
tp5519
I21
s(g47
g42
g16
tp5520
I97
s.