ccollections
defaultdict
p0
(c__builtin__
int
p1
tp2
Rp3
(S't'
p4
S'a'
p5
S'n'
p6
tp7
I502
s(S'r'
p8
S'g'
p9
S'h'
p10
tp11
I3
s(S'y'
p12
g6
g5
tp13
I12
s(S'p'
p14
S'm'
p15
g8
tp16
I1
s(g5
S'u'
p17
S's'
p18
tp19
I292
s(g4
g4
g10
tp20
I6
s(g17
S'i'
p21
g9
tp22
I1
s(g17
g8
S'c'
p23
tp24
I49
s(S'b'
p25
S'e'
p26
S'l'
p27
tp28
I259
s(g9
g8
g12
tp29
I168
s(S'k'
p30
g26
S'd'
p31
tp32
I883
s(g21
g4
g21
tp33
I481
s(g14
g26
g6
tp34
I566
s(g25
S'w'
p35
g21
tp36
I1
s(g12
g27
g26
tp37
I59
s(g23
g10
g27
tp38
I24
s(g8
g12
S'o'
p39
tp40
I93
s(g12
g9
g21
tp41
I4
s(g4
g39
g15
tp42
I193
s(g26
g10
g39
tp43
I34
s(g31
g18
g27
tp44
I4
s(g9
g10
g39
tp45
I49
s(g21
g9
g9
tp46
I51
s(g5
g25
g5
tp47
I37
s(g17
g9
g5
tp48
I42
s(g10
g17
g10
tp49
I8
s(g9
g21
S'v'
p50
tp51
I206
s(g15
g15
g18
tp52
I29
s(g26
g50
g27
tp53
I1
s(g6
g21
g31
tp54
I2
s(S'j'
p55
g17
g4
tp56
I1
s(g39
g9
g8
tp57
I92
s(g8
g21
g6
tp58
I1114
s(g26
g8
g12
tp59
I905
s(g5
g26
g6
tp60
I1
s(g25
g26
g12
tp61
I34
s(g5
g31
g6
tp62
I9
s(g18
g39
g4
tp63
I3
s(g4
g10
g8
tp64
I826
s(g18
g23
g8
tp65
I250
s(g39
g4
g10
tp66
I1071
s(g14
g39
g23
tp67
I26
s(g25
g21
g4
tp68
I241
s(S'f'
p69
g39
g35
tp70
I2
s(g5
g35
g9
tp71
I1
s(g5
g5
g4
tp72
I2
s(g55
g26
g69
tp73
I2
s(S'z'
p74
g26
g21
tp75
I1
s(g39
g31
g21
tp76
I61
s(g23
g5
g14
tp77
I125
s(g69
g39
g6
tp78
I8
s(g23
g26
g25
tp79
I1
s(g30
g21
g31
tp80
I34
s(g69
g17
g69
tp81
I1
s(g4
g39
g4
tp82
I36
s(g55
g39
g23
tp83
I3
s(g5
g35
g69
tp84
I25
s(g6
g18
g14
tp85
I35
s(g23
g21
g74
tp86
I6
s(g9
g5
g4
tp87
I76
s(g25
g8
g23
tp88
I1
s(g35
g18
g9
tp89
I6
s(g14
g18
g5
tp90
I3
s(g69
g4
g12
tp91
I38
s(g15
g23
g9
tp92
I80
s(g69
g4
g10
tp93
I17
s(g27
g4
g10
tp94
I61
s(S'^'
p95
g25
tp96
I9534
s(g5
g35
g8
tp97
I5
s(g6
g69
g26
tp98
I37
s(g10
g27
g26
tp99
I24
s(g26
g27
g18
tp100
I204
s(g23
g23
g8
tp101
I7
s(g26
g35
g39
tp102
I29
s(g21
g18
g14
tp103
I111
s(g26
g6
g39
tp104
I158
s(g39
g69
g39
tp105
I11
s(g17
S'q'
p106
g17
tp107
I1
s(g6
g26
g4
tp108
I80
s(g6
g21
g6
tp109
I968
s(g9
g15
g26
tp110
I14
s(g5
g8
g15
tp111
I327
s(g26
g25
g18
tp112
I7
s(g9
g5
g15
tp113
I67
s(g4
g5
g17
tp114
I27
s(g5
g30
g39
tp115
I1
s(g35
g21
g6
tp116
I504
s(g15
g26
g18
tp117
I310
s(g39
g35
g6
tp118
I824
s(g12
g9
g6
tp119
I1
s(g5
g9
g15
tp120
I3
s(g6
g21
g17
tp121
I9
s(g18
g39
g15
tp122
I846
s(g39
g14
g17
tp123
I27
s(g8
g15
g12
tp124
I4
s(g17
g10
g69
tp125
I2
s(g27
g17
g4
tp126
I114
s(g27
g27
g21
tp127
I366
s(g9
g4
g10
tp128
I27
s(g23
g5
g12
tp129
I2
s(g21
g27
g25
tp130
I8
s(g18
g26
g9
tp131
I3
s(g23
g12
g14
tp132
I2
s(g21
g15
g5
tp133
I179
s(g25
g5
g18
tp134
I100
s(g15
g39
g14
tp135
I9
s(g6
g50
g39
tp136
I14
s(g50
g39
g15
tp137
I11
s(g39
g27
g18
tp138
I38
s(g4
g26
g4
tp139
I6
s(g69
g39
g8
tp140
I2731
s(g9
g12
g8
tp141
I1
s(g10
g21
g4
tp142
I255
s(g39
g26
g25
tp143
I2
s(g8
g17
g26
tp144
I47
s(g35
g6
g10
tp145
I1
s(g6
g23
g26
tp146
I1191
s(g39
g26
g6
tp147
I12
s(g5
g15
g8
tp148
I11
s(g14
g8
g5
tp149
I97
s(g21
g5
g14
tp150
I1
s(g35
g8
g26
tp151
I33
s(g35
g21
g23
tp152
I49
s(g14
g31
g69
tp153
I4
s(g21
g27
g27
tp154
I1259
s(g4
g23
g15
tp155
I1
s(g5
g8
g50
tp156
I26
s(g5
S'$'
p157
tp158
I1625
s(g25
g27
g5
tp159
I220
s(g31
g26
g5
tp160
I390
s(g5
g6
g21
tp161
I326
s(g5
g10
g15
tp162
I3
s(g39
g21
g4
tp163
I4
s(g39
g4
g4
tp164
I382
s(g50
g26
g25
tp165
I1
s(g50
g26
g4
tp166
I22
s(g30
g39
g69
tp167
I16
s(g10
g26
g23
tp168
I58
s(g27
g21
g4
tp169
I720
s(g23
g39
g31
tp170
I15
s(g26
S'x'
p171
g26
tp172
I47
s(g10
g15
g15
tp173
I1
s(g17
g6
g69
tp174
I33
s(g21
g27
g12
tp175
I241
s(g21
g23
g30
tp176
I798
s(g6
g17
g23
tp177
I8
s(g23
g8
g4
tp178
I3
s(g27
g18
g23
tp179
I1
s(g35
g5
g4
tp180
I294
s(g10
g27
g39
tp181
I9
s(g15
g21
g18
tp182
I223
s(g4
g12
g9
tp183
I1
s(g18
g18
g26
tp184
I438
s(g26
g15
g14
tp185
I171
s(g21
g15
g6
tp186
I15
s(g18
g106
g17
tp187
I253
s(g23
g21
g4
tp188
I86
s(g23
g39
g12
tp189
I4
s(g39
g6
g18
tp190
I889
s(g6
g31
g30
tp191
I5
s(g14
g39
g4
tp192
I246
s(g4
g15
g23
tp193
I1
s(g30
g21
g23
tp194
I76
s(g4
g25
g39
tp195
I4
s(g50
g26
g21
tp196
I7
s(g17
g25
g17
tp197
I5
s(g14
g21
g31
tp198
I94
s(g31
g15
g17
tp199
I4
s(g4
g21
g18
tp200
I160
s(g23
g23
g23
tp201
I1
s(g14
g14
g21
tp202
I174
s(g12
g21
g26
tp203
I4
s(g74
g17
g8
tp204
I4
s(g21
g21
g14
tp205
I1
s(g27
g17
g50
tp206
I1
s(g4
g50
g6
tp207
I1
s(g6
g4
g27
tp208
I226
s(g69
g21
g27
tp209
I214
s(g31
g17
g18
tp210
I39
s(g23
g4
g27
tp211
I95
s(g4
g5
g12
tp212
I75
s(g50
g35
g5
tp213
I1
s(g21
g69
g26
tp214
I141
s(g6
g10
g21
tp215
I5
s(g4
g10
g31
tp216
I25
s(g39
g35
g15
tp217
I2
s(g23
g26
g27
tp218
I93
s(g27
g171
g5
tp219
I4
s(g30
g21
g6
tp220
I1140
s(g17
g18
g4
tp221
I936
s(g50
g21
g8
tp222
I25
s(g18
g21
g74
tp223
I52
s(g27
g25
g21
tp224
I1
s(g39
g27
g26
tp225
I256
s(g6
g23
g69
tp226
I1
s(g9
g26
g31
tp227
I225
s(g14
g5
g69
tp228
I1
s(g8
g4
g69
tp229
I3
s(g14
g18
g30
tp230
I2
s(g17
g27
g23
tp231
I5
s(g25
g4
g26
tp232
I2
s(g25
g21
g9
tp233
I73
s(g15
g18
g12
tp234
I2
s(g10
g4
g10
tp235
I17
s(g50
g26
g18
tp236
I281
s(g39
g171
g26
tp237
I12
s(g9
g27
g39
tp238
I76
s(g23
g39
g74
tp239
I1
s(g55
g17
g50
tp240
I3
s(g26
g5
g8
tp241
I1473
s(g74
g21
g6
tp242
I103
s(g23
g10
g21
tp243
I537
s(g21
g23
g17
tp244
I117
s(g10
g39
g5
tp245
I17
s(g55
g26
g5
tp246
I10
s(g27
g15
g8
tp247
I1
s(g39
g35
g69
tp248
I5
s(g18
g50
g21
tp249
I2
s(g31
g27
g26
tp250
I347
s(g10
g17
g26
tp251
I1
s(g8
g21
g18
tp252
I341
s(g69
g21
g26
tp253
I170
s(g8
g4
g17
tp254
I66
s(g69
g25
g21
tp255
I1
s(g50
g39
g8
tp256
I33
s(g17
g5
g18
tp257
I9
s(g9
g35
g5
tp258
I78
s(g39
g15
g5
tp259
I274
s(g26
g6
g21
tp260
I403
s(g27
g12
g14
tp261
I1
s(g18
g23
g4
tp262
I1
s(g27
g31
g15
tp263
I1
s(g39
g23
g4
tp264
I37
s(g12
g27
g27
tp265
I21
s(g26
g26
g50
tp266
I46
s(g55
g157
tp267
I2
s(g31
g5
g55
tp268
I1
s(g39
g4
g23
tp269
I14
s(g39
g5
g14
tp270
I3
s(g6
g18
g21
tp271
I284
s(g27
g157
tp272
I6516
s(g74
g26
g5
tp273
I6
s(g8
g69
g26
tp274
I62
s(g10
g39
g27
tp275
I457
s(g17
g35
g21
tp276
I3
s(g23
g17
g23
tp277
I1
s(g12
g39
g4
tp278
I7
s(g8
g6
g10
tp279
I4
s(g39
g15
g12
tp280
I13
s(g17
g26
g27
tp281
I42
s(g10
g35
g26
tp282
I1
s(g18
g10
g12
tp283
I14
s(g14
g21
g50
tp284
I6
s(g17
g14
g21
tp285
I41
s(g4
g21
g26
tp286
I137
s(g6
g6
g6
tp287
I18
s(g18
g69
g5
tp288
I5
s(g27
g12
g6
tp289
I9
s(g12
g10
g39
tp290
I15
s(g8
g39
g31
tp291
I146
s(g26
g9
g8
tp292
I61
s(g14
g26
g69
tp293
I10
s(g9
g39
g27
tp294
I74
s(g9
g26
g21
tp295
I3
s(g50
g10
g18
tp296
I1
s(g17
g21
g25
tp297
I7
s(g12
g30
g26
tp298
I1
s(g27
g23
g12
tp299
I1
s(g25
g21
g25
tp300
I13
s(g15
g39
g23
tp301
I67
s(g5
g17
g26
tp302
I4
s(g6
g4
g30
tp303
I1
s(g15
g17
g74
tp304
I2
s(g4
g27
g25
tp305
I2
s(g15
g6
g26
tp306
I23
s(g39
g12
g69
tp307
I4
s(g10
g25
g31
tp308
I6
s(g5
g10
g17
tp309
I4
s(g14
g39
g35
tp310
I107
s(g50
g5
g9
tp311
I216
s(g27
g39
g50
tp312
I120
s(g69
g5
g23
tp313
I386
s(g4
g25
g5
tp314
I7
s(g5
g171
g39
tp315
I7
s(g30
g26
g69
tp316
I1
s(g6
g12
g14
tp317
I2
s(g171
g5
g171
tp318
I2
s(g15
g39
g9
tp319
I7
s(g15
g39
g26
tp320
I1
s(g39
g15
g69
tp321
I89
s(g39
g18
g39
tp322
I39
s(g31
g21
g9
tp323
I59
s(g14
g5
g4
tp324
I167
s(g5
g23
g17
tp325
I30
s(g15
g27
g26
tp326
I5
s(g9
g8
g14
tp327
I1
s(g4
g39
g35
tp328
I254
s(g8
g9
g8
tp329
I14
s(g69
g5
g27
tp330
I97
s(g5
g4
g17
tp331
I221
s(g6
g30
g18
tp332
I98
s(g8
g10
g39
tp333
I9
s(g5
g31
g8
tp334
I17
s(g30
g27
g17
tp335
I2
s(g4
g21
g9
tp336
I74
s(g15
g26
g26
tp337
I53
s(g31
g17
g21
tp338
I12
s(g21
g26
g69
tp339
I55
s(g8
g14
g26
tp340
I37
s(g74
g25
g5
tp341
I1
s(g21
g18
g9
tp342
I19
s(g8
g8
g26
tp343
I160
s(g21
g18
g27
tp344
I36
s(g18
g17
g8
tp345
I361
s(g55
g26
g27
tp346
I14
s(g18
g12
g27
tp347
I7
s(g18
g27
g27
tp348
I1
s(g5
g50
g21
tp349
I208
s(g9
g26
g6
tp350
I240
s(g4
g39
g21
tp351
I16
s(g74
g21
g39
tp352
I2
s(g18
g17
g5
tp353
I105
s(g18
g5
g50
tp354
I223
s(g14
g15
g39
tp355
I1
s(g4
g17
g6
tp356
I131
s(g8
g23
g10
tp357
I227
s(g21
g8
g5
tp358
I30
s(g26
g14
g17
tp359
I43
s(g15
g21
g17
tp360
I1
s(g9
g35
g26
tp361
I1
s(g4
g26
g39
tp362
I8
s(g17
g23
g17
tp363
I2
s(g31
g9
g12
tp364
I4
s(g50
g5
g55
tp365
I1
s(g18
g27
g5
tp366
I143
s(g27
g69
g4
tp367
I7
s(g35
g5
g10
tp368
I1
s(g4
g15
g26
tp369
I53
s(g5
g30
g26
tp370
I863
s(g10
g6
g21
tp371
I33
s(g18
g12
g21
tp372
I1
s(g10
g25
g39
tp373
I10
s(g18
g17
g9
tp374
I63
s(g12
g157
tp375
I15315
s(g27
g31
g18
tp376
I44
s(g10
g12
g5
tp377
I2
s(g21
g4
g17
tp378
I91
s(g10
g8
g12
tp379
I1
s(g8
g25
g12
tp380
I12
s(g8
g5
g55
tp381
I1
s(g21
g18
g23
tp382
I114
s(g8
g12
g23
tp383
I1
s(g18
g15
g5
tp384
I192
s(g23
g4
g50
tp385
I5
s(g10
g17
g9
tp386
I61
s(g4
g8
g26
tp387
I398
s(g5
g5
g23
tp388
I4
s(g4
g6
g23
tp389
I1
s(g8
g17
g5
tp390
I17
s(g6
g30
g69
tp391
I4
s(g69
g4
g27
tp392
I15
s(g95
g39
tp393
I5791
s(g15
g18
g39
tp394
I25
s(g18
g14
g21
tp395
I230
s(g5
g69
g39
tp396
I4
s(g6
g14
g26
tp397
I1
s(g5
g18
g18
tp398
I755
s(g31
g21
g69
tp399
I133
s(g26
g5
g9
tp400
I40
s(g17
g171
g27
tp401
I1
s(g8
g4
g10
tp402
I238
s(g8
g26
g74
tp403
I1
s(g50
g26
g31
tp404
I287
s(g21
g14
g26
tp405
I83
s(g39
g31
g17
tp406
I114
s(g5
g6
g171
tp407
I35
s(g9
g35
g39
tp408
I3
s(g9
g8
g17
tp409
I26
s(g25
g5
g25
tp410
I116
s(g74
g26
g9
tp411
I2
s(g10
g4
g26
tp412
I135
s(g15
g14
g17
tp413
I65
s(g9
g26
g18
tp414
I238
s(g26
g14
g6
tp415
I1
s(g17
g4
g10
tp416
I209
s(g31
g18
g14
tp417
I5
s(g4
g10
g15
tp418
I30
s(g35
g25
g18
tp419
I1
s(g27
g5
g35
tp420
I70
s(g14
g18
g17
tp421
I7
s(g14
g39
g171
tp422
I1
s(g9
g14
g39
tp423
I1
s(g25
g26
g50
tp424
I6
s(g14
g8
g39
tp425
I1065
s(g18
g39
g6
tp426
I587
s(g9
g17
g23
tp427
I4
s(g26
g27
g35
tp428
I47
s(g8
g17
g4
tp429
I47
s(g8
g74
g25
tp430
I19
s(g5
g12
g26
tp431
I60
s(g14
g30
g21
tp432
I12
s(g55
g69
g26
tp433
I1
s(g39
g39
g4
tp434
I179
s(g5
g15
g6
tp435
I23
s(g5
g8
g5
tp436
I164
s(g8
g31
g18
tp437
I343
s(g10
g26
g10
tp438
I3
s(g8
g17
g23
tp439
I105
s(g21
g27
g14
tp440
I1
s(g35
g39
g30
tp441
I24
s(g39
g25
g5
tp442
I52
s(g26
g9
g9
tp443
I73
s(g74
g74
g27
tp444
I35
s(g5
g74
g39
tp445
I3
s(g5
g4
g6
tp446
I3
s(g6
g4
g50
tp447
I1
s(g35
g18
g30
tp448
I18
s(g31
g5
g23
tp449
I5
s(g14
g21
g171
tp450
I9
s(g8
g5
g171
tp451
I3
s(g18
g26
g10
tp452
I7
s(g69
g27
g21
tp453
I110
s(g14
g4
g10
tp454
I9
s(g18
g8
g5
tp455
I3
s(g8
g10
g26
tp456
I22
s(g27
g39
g30
tp457
I5
s(g9
g17
g31
tp458
I1
s(g69
g21
g8
tp459
I381
s(g6
g5
g10
tp460
I18
s(g26
g171
g21
tp461
I52
s(g14
g14
g18
tp462
I48
s(g30
g39
g17
tp463
I2
s(g5
g5
g69
tp464
I1
s(g10
g4
g31
tp465
I1
s(g39
g23
g8
tp466
I7
s(g171
g4
g10
tp467
I3
s(g23
g18
g21
tp468
I1
s(g8
g5
g30
tp469
I44
s(g8
g31
g31
tp470
I1
s(g10
g8
g17
tp471
I39
s(g8
g8
g18
tp472
I3
s(g26
g17
g171
tp473
I2
s(g4
g39
g25
tp474
I18
s(g30
g5
g15
tp475
I8
s(g23
g26
g50
tp476
I2
s(g15
g25
g18
tp477
I29
s(g39
g6
g35
tp478
I4
s(g69
g4
g15
tp479
I3
s(g26
g5
g31
tp480
I979
s(g8
g26
g10
tp481
I31
s(g5
g6
g17
tp482
I36
s(g15
g18
g26
tp483
I208
s(g9
g39
g26
tp484
I45
s(g23
g5
g25
tp485
I56
s(g8
g14
g8
tp486
I57
s(g25
g14
g15
tp487
I1
s(g10
g4
g8
tp488
I1
s(g31
g55
g17
tp489
I7
s(g4
g26
g26
tp490
I195
s(g31
g26
g6
tp491
I662
s(g6
g14
g25
tp492
I1
s(g21
g9
g18
tp493
I6
s(g4
g10
g12
tp494
I57
s(g8
g31
g6
tp495
I5
s(g39
g14
g14
tp496
I232
s(g31
g8
g18
tp497
I1
s(g12
g23
g10
tp498
I26
s(g4
g4
g69
tp499
I2
s(g23
g12
g27
tp500
I12
s(g171
g21
g39
tp501
I54
s(g50
g18
g31
tp502
I1
s(g5
g4
g18
tp503
I88
s(g4
g69
g8
tp504
I2
s(g50
g21
g50
tp505
I35
s(g35
g31
g18
tp506
I3
s(g18
g39
g39
tp507
I86
s(g39
g27
g21
tp508
I242
s(g55
g5
g15
tp509
I46
s(g5
g14
g23
tp510
I53
s(g31
g26
g23
tp511
I156
s(g8
g69
g18
tp512
I3
s(g35
g18
g27
tp513
I2
s(g39
g8
g26
tp514
I1051
s(g18
g5
g14
tp515
I41
s(g18
g9
g17
tp516
I12
s(g17
g21
g14
tp517
I34
s(g74
g39
g39
tp518
I8
s(g26
g15
g21
tp519
I93
s(g69
g8
g5
tp520
I111
s(g27
g18
g8
tp521
I1
s(g15
g15
g17
tp522
I66
s(g5
g25
g6
tp523
I6
s(g18
g10
g17
tp524
I98
s(g4
g18
g14
tp525
I3
s(g14
g17
g18
tp526
I68
s(g6
g39
g171
tp527
I2
s(g17
g5
g21
tp528
I3
s(g9
g26
g39
tp529
I148
s(g23
g14
g25
tp530
I1
s(g10
g4
g25
tp531
I1
s(g31
g18
g6
tp532
I1
s(g5
g35
g26
tp533
I14
s(g17
g26
g6
tp534
I72
s(g50
g26
g6
tp535
I578
s(g18
g69
g17
tp536
I5
s(g39
g25
g25
tp537
I183
s(g9
g39
g31
tp538
I68
s(g21
g26
g27
tp539
I121
s(g12
g21
g6
tp540
I532
s(g25
g17
g74
tp541
I16
s(g26
g14
g18
tp542
I115
s(g27
g4
g26
tp543
I86
s(g55
g39
g26
tp544
I21
s(g5
g31
g39
tp545
I44
s(g5
g31
g10
tp546
I2
s(g5
g10
g10
tp547
I4
s(g50
g21
g39
tp548
I71
s(g21
g31
g4
tp549
I4
s(g27
g69
g17
tp550
I4
s(g27
g39
g27
tp551
I6
s(g50
g4
g39
tp552
I1
s(g14
g39
g8
tp553
I294
s(g21
g6
g5
tp554
I545
s(g8
g18
g69
tp555
I2
s(g27
g26
g171
tp556
I55
s(g17
g39
g8
tp557
I6
s(g55
g5
g35
tp558
I18
s(g171
g23
g21
tp559
I35
s(g39
g9
g21
tp560
I59
s(g69
g69
g6
tp561
I6
s(g35
g5
g21
tp562
I143
s(g27
g21
g8
tp563
I4
s(g23
g10
g17
tp564
I46
s(g18
g4
g25
tp565
I3
s(g39
g18
g12
tp566
I2
s(g23
g23
g39
tp567
I74
s(g69
g18
g18
tp568
I1
s(g23
g10
g69
tp569
I4
s(g23
g5
g23
tp570
I14
s(g5
g15
g31
tp571
I1
s(g39
g5
g106
tp572
I1
s(g6
g35
g39
tp573
I3
s(g23
g39
g21
tp574
I33
s(g8
g39
g10
tp575
I5
s(g17
g5
g35
tp576
I2
s(g35
g21
g27
tp577
I397
s(g5
g8
g171
tp578
I20
s(g9
g21
g25
tp579
I5
s(g8
g21
g171
tp580
I3
s(g21
g171
g5
tp581
I2
s(g6
g4
g17
tp582
I111
s(g5
g17
g25
tp583
I6
s(g26
g39
g15
tp584
I29
s(g5
g35
g18
tp585
I51
s(g35
g5
g69
tp586
I3
s(g8
g25
g26
tp587
I14
s(g21
g6
g27
tp588
I48
s(g55
g5
g50
tp589
I1
s(g27
g14
g4
tp590
I13
s(g26
g8
g5
tp591
I499
s(g18
g26
g26
tp592
I840
s(g21
g50
g26
tp593
I943
s(g35
g39
g26
tp594
I3
s(g10
g21
g26
tp595
I58
s(g4
g5
g30
tp596
I383
s(g17
g8
g14
tp597
I102
s(g23
g4
g18
tp598
I125
s(g69
g39
g171
tp599
I2
s(g25
g25
g8
tp600
I2
s(g21
g4
g10
tp601
I2180
s(g39
g17
g14
tp602
I99
s(g25
g12
g8
tp603
I6
s(g30
g35
g5
tp604
I35
s(g26
g21
g4
tp605
I66
s(g4
g39
g27
tp606
I168
s(g4
g10
g14
tp607
I1
s(g55
g39
g17
tp608
I18
s(g35
g21
g5
tp609
I1
s(g26
g26
g5
tp610
I6
s(g35
g10
g26
tp611
I920
s(g4
g74
g6
tp612
I2
s(g39
g39
g9
tp613
I3
s(g6
g30
g15
tp614
I15
s(g26
g171
g39
tp615
I8
s(g26
g6
g26
tp616
I545
s(g21
g18
g17
tp617
I22
s(g4
g39
g18
tp618
I22
s(g21
g6
g35
tp619
I7
s(g27
g27
g39
tp620
I374
s(g26
g4
g35
tp621
I118
s(g26
g14
g5
tp622
I81
s(g35
g14
g17
tp623
I2
s(g5
g27
g8
tp624
I73
s(g69
g17
g9
tp625
I4
s(g31
g157
tp626
I28453
s(g23
g17
g31
tp627
I1
s(g15
g23
g35
tp628
I1
s(g23
g39
g69
tp629
I214
s(g5
g25
g31
tp630
I4
s(g12
g6
g21
tp631
I2
s(g12
g6
g39
tp632
I3
s(g31
g8
g21
tp633
I199
s(g39
g39
g10
tp634
I9
s(g21
g26
g25
tp635
I1
s(g30
g10
g5
tp636
I232
s(g25
g8
g17
tp637
I52
s(g17
g6
g50
tp638
I1
s(g26
g12
g21
tp639
I8
s(g39
g50
g39
tp640
I12
s(g21
g18
g10
tp641
I541
s(g25
g4
g21
tp642
I9
s(g9
g5
g17
tp643
I11
s(g8
g17
g14
tp644
I52
s(g27
g4
g74
tp645
I77
s(g9
g4
g39
tp646
I3
s(g8
g12
g35
tp647
I6
s(g8
g30
g6
tp648
I33
s(g26
g27
g26
tp649
I442
s(g14
g5
g10
tp650
I1
s(g23
g50
g18
tp651
I1
s(g15
g12
g4
tp652
I4
s(g8
g30
g18
tp653
I102
s(g5
g9
g23
tp654
I1
s(g17
g14
g18
tp655
I72
s(g30
g21
g5
tp656
I3
s(g27
g27
g31
tp657
I1
s(g15
g26
g4
tp658
I538
s(g5
g27
g25
tp659
I20
s(g171
g5
g9
tp660
I23
s(g39
g55
g26
tp661
I102
s(g5
g69
g27
tp662
I1
s(g4
g18
g26
tp663
I55
s(g31
g26
g27
tp664
I126
s(g5
g10
g27
tp665
I31
s(g26
g35
g8
tp666
I1
s(g106
g21
g6
tp667
I1
s(g35
g17
g8
tp668
I2
s(g31
g23
g14
tp669
I1
s(g95
g18
tp670
I19592
s(g5
g35
g39
tp671
I3
s(g35
g5
g9
tp672
I13
s(g26
g69
g17
tp673
I119
s(g10
g21
g69
tp674
I24
s(g26
g39
g27
tp675
I4
s(g5
g9
g6
tp676
I20
s(g25
g39
g26
tp677
I1
s(g30
g21
g27
tp678
I150
s(g25
g5
g50
tp679
I5
s(g50
g9
g17
tp680
I1
s(g50
g21
g14
tp681
I6
s(g15
g14
g5
tp682
I111
s(g25
g27
g12
tp683
I163
s(g21
g39
g15
tp684
I20
s(g10
g31
g39
tp685
I3
s(g9
g27
g12
tp686
I125
s(g74
g5
g30
tp687
I1
s(g39
g69
g26
tp688
I204
s(g55
g17
g8
tp689
I30
s(g27
g18
g10
tp690
I2
s(g17
g21
g50
tp691
I21
s(g26
g31
g25
tp692
I1
s(g8
g4
g18
tp693
I251
s(g27
g21
g10
tp694
I1
s(g39
g27
g8
tp695
I1
s(g18
g31
g39
tp696
I2
s(g31
g39
g6
tp697
I191
s(g8
g18
g12
tp698
I4
s(g21
g15
g31
tp699
I1
s(g12
g55
g17
tp700
I12
s(g26
g6
g35
tp701
I1
s(g21
g23
g18
tp702
I308
s(g15
g25
g26
tp703
I378
s(g27
g21
g69
tp704
I206
s(g26
g10
g15
tp705
I2
s(g27
g14
g18
tp706
I6
s(g30
g5
g25
tp707
I17
s(g6
g17
g21
tp708
I10
s(g23
g25
g21
tp709
I1
s(g26
g4
g50
tp710
I1
s(g6
g5
g30
tp711
I58
s(g9
g5
g8
tp712
I135
s(g18
g4
g18
tp713
I174
s(g74
g157
tp714
I211
s(g17
g171
g21
tp715
I1
s(g9
g39
g35
tp716
I1
s(g23
g10
g35
tp717
I6
s(g26
g106
g17
tp718
I169
s(g6
g4
g25
tp719
I1
s(g26
g15
g17
tp720
I10
s(g23
g8
g17
tp721
I61
s(g21
g50
g39
tp722
I9
s(g12
g5
g27
tp723
I22
s(g50
g14
g18
tp724
I1
s(g18
g26
g39
tp725
I1
s(g15
g69
g17
tp726
I3
s(g18
g5
g12
tp727
I344
s(g26
g6
g25
tp728
I41
s(g8
g21
g69
tp729
I102
s(g4
g5
g5
tp730
I2
s(g9
g39
g25
tp731
I4
s(g25
g26
g5
tp732
I280
s(g5
g31
g69
tp733
I24
s(g4
g4
g26
tp734
I921
s(g5
g8
g10
tp735
I6
s(g26
g18
g106
tp736
I5
s(g17
g8
g69
tp737
I20
s(g14
g21
g15
tp738
I3
s(g10
g5
g30
tp739
I106
s(g26
g30
g21
tp740
I13
s(g21
g25
g5
tp741
I3
s(g6
g50
g12
tp742
I2
s(g12
g26
g25
tp743
I13
s(g27
g23
g8
tp744
I2
s(g21
g39
g8
tp745
I36
s(g5
g12
g8
tp746
I1
s(g15
g25
g27
tp747
I297
s(g23
g26
g21
tp748
I72
s(g25
g39
g14
tp749
I1
s(g39
g74
g26
tp750
I41
s(g69
g69
g18
tp751
I25
s(g35
g26
g12
tp752
I2
s(g4
g25
g8
tp753
I5
s(g18
g5
g25
tp754
I10
s(g8
g5
g4
tp755
I639
s(g10
g17
g30
tp756
I1
s(g5
g39
g9
tp757
I1
s(g15
g4
g50
tp758
I1
s(g35
g31
g12
tp759
I1
s(g14
g14
g27
tp760
I150
s(g26
g27
g30
tp761
I1
s(g4
g10
g26
tp762
I21245
s(g9
g74
g5
tp763
I3
s(g23
g12
g23
tp764
I18
s(g12
g8
g8
tp765
I3
s(g8
g5
g9
tp766
I175
s(g15
g5
g9
tp767
I214
s(g6
g9
g35
tp768
I4
s(g39
g27
g31
tp769
I705
s(g5
g30
g12
tp770
I4
s(g18
g18
g15
tp771
I2
s(g25
g15
g23
tp772
I1
s(g17
g35
g26
tp773
I19
s(g18
g14
g10
tp774
I19
s(g31
g39
g9
tp775
I40
s(g23
g30
g18
tp776
I366
s(g17
g18
g25
tp777
I4
s(g27
g14
g5
tp778
I17
s(g26
g25
g25
tp779
I3
s(g23
g4
g17
tp780
I168
s(g21
g39
g14
tp781
I3
s(g14
g12
g27
tp782
I1
s(g4
g4
g12
tp783
I34
s(g26
g4
g12
tp784
I79
s(g18
g4
g15
tp785
I36
s(g39
g17
g21
tp786
I5
s(g26
g15
g27
tp787
I1
s(g26
g8
g35
tp788
I42
s(g17
g23
g23
tp789
I32
s(g8
g12
g17
tp790
I3
s(g6
g5
g4
tp791
I349
s(g35
g6
g18
tp792
I26
s(g31
g8
g39
tp793
I214
s(g39
g39
g6
tp794
I205
s(g9
g10
g5
tp795
I7
s(g10
g31
g4
tp796
I1
s(g39
g35
g26
tp797
I524
s(g5
g30
g6
tp798
I5
s(g69
g39
g39
tp799
I128
s(g31
g35
g8
tp800
I3
s(g30
g21
g50
tp801
I8
s(g18
g17
g14
tp802
I153
s(g6
g4
g5
tp803
I300
s(g15
g14
g30
tp804
I8
s(g17
g106
g25
tp805
I1
s(g31
g21
g4
tp806
I196
s(g39
g27
g15
tp807
I4
s(g25
g4
g8
tp808
I1
s(g27
g30
g26
tp809
I96
s(g8
g10
g5
tp810
I57
s(g14
g5
g6
tp811
I135
s(g25
g21
g74
tp812
I5
s(g8
g26
g4
tp813
I371
s(g6
g18
g10
tp814
I26
s(g8
g5
g12
tp815
I69
s(g9
g9
g39
tp816
I6
s(g27
g23
g39
tp817
I38
s(g39
g9
g35
tp818
I78
s(g15
g8
g23
tp819
I3
s(g17
g27
g17
tp820
I9
s(g15
g17
g31
tp821
I34
s(g25
g5
g21
tp822
I26
s(g4
g5
g31
tp823
I6
s(g5
g18
g27
tp824
I194
s(g39
g18
g26
tp825
I691
s(g21
g74
g21
tp826
I42
s(g31
g18
g25
tp827
I1
s(g23
g17
g15
tp828
I16
s(g8
g39
g23
tp829
I143
s(g4
g30
g6
tp830
I1
s(g95
g10
tp831
I15501
s(g4
g8
g23
tp832
I2
s(g171
g21
g23
tp833
I35
s(g21
g4
g74
tp834
I17
s(g55
g21
g9
tp835
I3
s(g17
g9
g10
tp836
I1359
s(g50
g21
g9
tp837
I10
s(g4
g14
g39
tp838
I2
s(g25
g10
g5
tp839
I1
s(g26
g9
g17
tp840
I45
s(g18
g25
g5
tp841
I7
s(g26
g6
g106
tp842
I5
s(g21
g10
g39
tp843
I1
s(g9
g39
g18
tp844
I6
s(g39
g35
g25
tp845
I4
s(g26
g10
g21
tp846
I194
s(g12
g25
g5
tp847
I3
s(g8
g5
g69
tp848
I41
s(g15
g5
g31
tp849
I365
s(g171
g26
g6
tp850
I2
s(g14
g39
g50
tp851
I2
s(g31
g15
g15
tp852
I2
s(g4
g27
g26
tp853
I809
s(g171
g4
g21
tp854
I8
s(g74
g17
g10
tp855
I1
s(g4
g26
g106
tp856
I26
s(g10
g39
g4
tp857
I218
s(g12
g18
g26
tp858
I23
s(g50
g8
g12
tp859
I3
s(g17
g26
g25
tp860
I12
s(g17
g31
g8
tp861
I2
s(g4
g26
g25
tp862
I4
s(g35
g26
g4
tp863
I22
s(g4
g25
g31
tp864
I1
s(g4
g12
g25
tp865
I2
s(g27
g35
g10
tp866
I1
s(g21
g9
g15
tp867
I4
s(g18
g69
g21
tp868
I24
s(g17
g9
g9
tp869
I144
s(g26
g18
g14
tp870
I163
s(g26
g17
g31
tp871
I2
s(g8
g5
g39
tp872
I15
s(g35
g31
g4
tp873
I1
s(g4
g39
g5
tp874
I13
s(g5
g14
g30
tp875
I2
s(g25
g26
g9
tp876
I291
s(g27
g27
g14
tp877
I1
s(g35
g6
g8
tp878
I2
s(g55
g26
g18
tp879
I36
s(g12
g8
g39
tp880
I4
s(g8
g4
g6
tp881
I10
s(g17
g12
g21
tp882
I4
s(g8
g12
g27
tp883
I4
s(g30
g69
g21
tp884
I1
s(g30
g17
g14
tp885
I1
s(g31
g5
g14
tp886
I4
s(g10
g25
g26
tp887
I1
s(g27
g12
g74
tp888
I8
s(g6
g74
g26
tp889
I5
s(g4
g35
g5
tp890
I15
s(g30
g21
g106
tp891
I2
s(g21
g23
g6
tp892
I1
s(g23
g8
g12
tp893
I46
s(g17
g15
g26
tp894
I120
s(g26
g27
g69
tp895
I437
s(g30
g18
g4
tp896
I2
s(g8
g18
g30
tp897
I6
s(g6
g6
g5
tp898
I51
s(g6
g21
g25
tp899
I8
s(g31
g50
g21
tp900
I20
s(g6
g9
g15
tp901
I1
s(g17
g74
g74
tp902
I45
s(g18
g35
g17
tp903
I10
s(g8
g23
g21
tp904
I36
s(g39
g9
g31
tp905
I1
s(g39
g5
g23
tp906
I47
s(g27
g5
g25
tp907
I97
s(g23
g30
g21
tp908
I141
s(g21
g69
g25
tp909
I1
s(g9
g31
g8
tp910
I1
s(g25
g18
g4
tp911
I83
s(g15
g39
g50
tp912
I243
s(g8
g106
g17
tp913
I8
s(g14
g39
g14
tp914
I86
s(g21
g14
g39
tp915
I3
s(g5
g35
g23
tp916
I1
s(g5
g27
g50
tp917
I10
s(g26
g8
g15
tp918
I521
s(g74
g26
g27
tp919
I7
s(g39
g5
g171
tp920
I4
s(g6
g74
g39
tp921
I1
s(g31
g26
g30
tp922
I1
s(g15
g25
g39
tp923
I43
s(g39
g6
g12
tp924
I61
s(g10
g4
g39
tp925
I1
s(g4
g6
g31
tp926
I17
s(g23
g17
g8
tp927
I189
s(g4
g5
g35
tp928
I1
s(g31
g8
g26
tp929
I312
s(g50
g39
g17
tp930
I74
s(g5
g4
g10
tp931
I876
s(g6
g26
g15
tp932
I22
s(g8
g14
g15
tp933
I1
s(g14
g39
g31
tp934
I8
s(g21
g4
g4
tp935
I603
s(g18
g10
g5
tp936
I388
s(g21
g18
g31
tp937
I4
s(g31
g17
g9
tp938
I4
s(g27
g5
g15
tp939
I161
s(g39
g21
g5
tp940
I1
s(g26
g17
g6
tp941
I8
s(g39
g25
g50
tp942
I24
s(g8
g26
g12
tp943
I43
s(g10
g39
g35
tp944
I709
s(g69
g21
g21
tp945
I7
s(g27
g27
g18
tp946
I168
s(g55
g5
g31
tp947
I1
s(g31
g25
g12
tp948
I6
s(g17
g14
g35
tp949
I18
s(g15
g5
g55
tp950
I38
s(g18
g21
g5
tp951
I35
s(g50
g26
g26
tp952
I1
s(g31
g5
g15
tp953
I115
s(g25
g17
g4
tp954
I1363
s(g26
g14
g15
tp955
I1
s(g55
g5
g8
tp956
I7
s(g8
g18
g26
tp957
I499
s(g69
g39
g5
tp958
I10
s(g5
g21
g26
tp959
I4
s(g14
g50
g10
tp960
I1
s(g69
g6
g9
tp961
I1
s(g21
g50
g21
tp962
I243
s(g26
g69
g39
tp963
I253
s(g5
g27
g39
tp964
I200
s(g8
g6
g15
tp965
I6
s(g17
g4
g21
tp966
I201
s(g31
g17
g14
tp967
I6
s(g39
g39
g27
tp968
I184
s(g26
g17
g23
tp969
I9
s(g8
g18
g35
tp970
I1
s(g15
g14
g4
tp971
I113
s(g35
g31
g21
tp972
I3
s(g39
g6
g55
tp973
I15
s(g14
g27
g26
tp974
I1321
s(g26
g50
g8
tp975
I3
s(g35
g26
g18
tp976
I31
s(g26
g25
g5
tp977
I20
s(g12
g27
g21
tp978
I21
s(g35
g6
g27
tp979
I1
s(g23
g30
g15
tp980
I4
s(g21
g26
g35
tp981
I67
s(g23
g30
g10
tp982
I217
s(g8
g17
g69
tp983
I9
s(g30
g31
g8
tp984
I2
s(g12
g14
g21
tp985
I12
s(g18
g35
g8
tp986
I1
s(g14
g39
g39
tp987
I131
s(g5
g4
g15
tp988
I18
s(g8
g25
g35
tp989
I1
s(g10
g26
g21
tp990
I655
s(g21
g69
g4
tp991
I195
s(g27
g31
g25
tp992
I2
s(g15
g25
g21
tp993
I62
s(g17
g157
tp994
I2842
s(g4
g27
g15
tp995
I1
s(g69
g15
g171
tp996
I1
s(g18
g10
g35
tp997
I3
s(g8
g26
g8
tp998
I49
s(g50
g26
g27
tp999
I251
s(g39
g14
g39
tp1000
I32
s(g12
g17
g30
tp1001
I9
s(g39
g31
g15
tp1002
I4
s(g17
g8
g39
tp1003
I28
s(g26
g23
g8
tp1004
I81
s(g6
g18
g23
tp1005
I33
s(g4
g26
g21
tp1006
I12
s(g35
g74
g5
tp1007
I1
s(g18
g39
g21
tp1008
I2
s(g5
g50
g5
tp1009
I241
s(g23
g39
g30
tp1010
I8
s(g69
g8
g12
tp1011
I9
s(g4
g50
g15
tp1012
I1
s(g35
g10
g12
tp1013
I214
s(g6
g8
g26
tp1014
I24
s(g8
g15
g26
tp1015
I93
s(g26
g69
g27
tp1016
I27
s(g31
g18
g10
tp1017
I20
s(g23
g26
g18
tp1018
I394
s(g15
g17
g4
tp1019
I56
s(g74
g39
g21
tp1020
I1
s(g39
g8
g4
tp1021
I689
s(g10
g17
g4
tp1022
I84
s(g21
g8
g21
tp1023
I73
s(g6
g69
g5
tp1024
I24
s(g26
g31
g8
tp1025
I20
s(g26
g12
g8
tp1026
I2
s(g6
g4
g18
tp1027
I385
s(g8
g21
g25
tp1028
I173
s(g18
g12
g15
tp1029
I51
s(g18
g6
g5
tp1030
I216
s(g26
g17
g12
tp1031
I2
s(g14
g14
g50
tp1032
I1
s(g21
g4
g69
tp1033
I2
s(g39
g8
g30
tp1034
I351
s(g50
g26
g5
tp1035
I28
s(g6
g5
g35
tp1036
I5
s(g5
g21
g35
tp1037
I1
s(g35
g15
g23
tp1038
I1
s(g31
g27
g39
tp1039
I6
s(g50
g5
g23
tp1040
I21
s(g5
g25
g8
tp1041
I12
s(g26
g69
g8
tp1042
I10
s(g23
g18
g25
tp1043
I2
s(g25
g27
g17
tp1044
I123
s(g30
g15
g26
tp1045
I17
s(g69
g5
g21
tp1046
I101
s(g35
g35
g35
tp1047
I12
s(g74
g30
g5
tp1048
I7
s(g18
g15
g21
tp1049
I140
s(g10
g23
g5
tp1050
I1
s(g35
g23
g5
tp1051
I5
s(g35
g26
g8
tp1052
I1233
s(g6
g23
g23
tp1053
I1
s(g39
g69
g21
tp1054
I5
s(g21
g27
g9
tp1055
I2
s(g5
g26
g4
tp1056
I2
s(g18
g26
g14
tp1057
I46
s(g35
g39
g4
tp1058
I1
s(g35
g26
g5
tp1059
I317
s(g14
g17
g30
tp1060
I1
s(g5
g15
g12
tp1061
I11
s(g15
g69
g21
tp1062
I3
s(g9
g18
g4
tp1063
I4
s(g69
g35
g26
tp1064
I3
s(g12
g23
g27
tp1065
I18
s(g4
g5
g15
tp1066
I53
s(g26
g6
g23
tp1067
I602
s(g27
g6
g5
tp1068
I1
s(g25
g12
g27
tp1069
I4
s(g21
g171
g4
tp1070
I47
s(g21
g106
g17
tp1071
I77
s(g8
g5
g23
tp1072
I360
s(g10
g12
g15
tp1073
I9
s(g31
g10
g21
tp1074
I2
s(g21
g30
g39
tp1075
I2
s(g14
g21
g9
tp1076
I24
s(g27
g31
g50
tp1077
I1
s(g5
g17
g23
tp1078
I5
s(g23
g30
g39
tp1079
I29
s(g39
g6
g10
tp1080
I2
s(g6
g39
g12
tp1081
I12
s(g30
g157
tp1082
I3585
s(g8
g30
g26
tp1083
I269
s(g25
g17
g12
tp1084
I27
s(g23
g35
g39
tp1085
I1
s(g25
g21
g18
tp1086
I91
s(g23
g23
g26
tp1087
I92
s(g23
g5
g55
tp1088
I2
s(g23
g55
g5
tp1089
I1
s(g10
g6
g6
tp1090
I23
s(g6
g18
g17
tp1091
I64
s(g9
g17
g69
tp1092
I1
s(g23
g14
g5
tp1093
I2
s(g31
g26
g69
tp1094
I128
s(g21
g15
g39
tp1095
I6
s(g27
g21
g50
tp1096
I148
s(g15
g18
g15
tp1097
I1
s(g18
g39
g69
tp1098
I45
s(g23
g39
g10
tp1099
I30
s(g74
g26
g17
tp1100
I1
s(g95
g30
tp1101
I1620
s(g6
g17
g31
tp1102
I6
s(g18
g31
g21
tp1103
I1
s(g17
g14
g17
tp1104
I2
s(g69
g21
g74
tp1105
I5
s(g5
g14
g17
tp1106
I4
s(g39
g12
g31
tp1107
I1
s(g18
g21
g9
tp1108
I245
s(g26
g31
g21
tp1109
I296
s(g30
g18
g5
tp1110
I1
s(g25
g18
g23
tp1111
I23
s(g4
g12
g30
tp1112
I1
s(g18
g18
g5
tp1113
I88
s(g18
g21
g50
tp1114
I94
s(g6
g31
g8
tp1115
I139
s(g17
g4
g26
tp1116
I424
s(g55
g39
g12
tp1117
I37
s(g39
g25
g21
tp1118
I20
s(g12
g17
g15
tp1119
I4
s(g26
g17
g25
tp1120
I7
s(g5
g4
g69
tp1121
I15
s(g6
g26
g18
tp1122
I466
s(g4
g17
g31
tp1123
I175
s(g74
g5
g14
tp1124
I2
s(g17
g15
g14
tp1125
I310
s(g69
g8
g4
tp1126
I1
s(g69
g27
g5
tp1127
I188
s(g39
g35
g4
tp1128
I6
s(g5
g55
g5
tp1129
I3
s(g26
g8
g18
tp1130
I1381
s(g8
g12
g21
tp1131
I183
s(g26
g4
g69
tp1132
I1
s(g18
g10
g25
tp1133
I11
s(g5
g27
g21
tp1134
I704
s(g5
g6
g31
tp1135
I8378
s(g50
g39
g12
tp1136
I6
s(g8
g26
g39
tp1137
I17
s(g27
g5
g31
tp1138
I98
s(g27
g30
g15
tp1139
I2
s(g39
g31
g23
tp1140
I2
s(g23
g18
g5
tp1141
I1
s(g17
g8
g26
tp1142
I761
s(g6
g55
g26
tp1143
I13
s(g27
g39
g106
tp1144
I4
s(g25
g17
g8
tp1145
I290
s(g26
g17
g14
tp1146
I7
s(g30
g4
g39
tp1147
I1
s(g10
g26
g30
tp1148
I4
s(g4
g39
g74
tp1149
I2
s(g23
g21
g26
tp1150
I224
s(g10
g23
g8
tp1151
I5
s(g5
g55
g26
tp1152
I17
s(g26
g26
g18
tp1153
I101
s(g8
g15
g39
tp1154
I119
s(g8
g14
g4
tp1155
I6
s(g5
g17
g31
tp1156
I56
s(g12
g12
g23
tp1157
I1
s(g26
g26
g25
tp1158
I10
s(g8
g5
g25
tp1159
I216
s(g50
g27
g5
tp1160
I1
s(g31
g5
g69
tp1161
I1
s(g27
g26
g10
tp1162
I3
s(g21
g6
g21
tp1163
I349
s(g18
g4
g23
tp1164
I2
s(g31
g15
g21
tp1165
I61
s(g6
g10
g17
tp1166
I10
s(g23
g18
g4
tp1167
I6
s(g74
g74
g21
tp1168
I8
s(g95
g26
tp1169
I4809
s(g5
g15
g4
tp1170
I1
s(g55
g17
g30
tp1171
I2
s(g4
g10
g106
tp1172
I2
s(g21
g10
g21
tp1173
I4
s(g50
g5
g4
tp1174
I85
s(g39
g17
g18
tp1175
I1011
s(g4
g4
g6
tp1176
I16
s(g21
g5
g74
tp1177
I1
s(g4
g157
tp1178
I20043
s(g26
g6
g31
tp1179
I643
s(g5
g4
g30
tp1180
I1
s(g21
g4
g35
tp1181
I9
s(g18
g39
g9
tp1182
I3
s(g95
g69
tp1183
I9181
s(g27
g30
g21
tp1184
I104
s(g6
g39
g25
tp1185
I61
s(g55
g9
g8
tp1186
I2
s(g31
g5
g106
tp1187
I2
s(g14
g31
g5
tp1188
I4
s(g21
g6
g4
tp1189
I1656
s(g35
g69
g39
tp1190
I1
s(g26
g39
g25
tp1191
I24
s(g10
g4
g4
tp1192
I13
s(g27
g50
g5
tp1193
I11
s(g17
g25
g12
tp1194
I1
s(g18
g26
g15
tp1195
I46
s(g39
g39
g21
tp1196
I3
s(g4
g10
g35
tp1197
I12
s(g74
g27
g21
tp1198
I11
s(g10
g21
g15
tp1199
I945
s(g14
g14
g26
tp1200
I613
s(g6
g9
g5
tp1201
I16
s(g10
g26
g171
tp1202
I21
s(g23
g157
tp1203
I969
s(g21
g21
g21
tp1204
I8
s(g39
g17
g17
tp1205
I2
s(g8
g35
g8
tp1206
I1
s(g14
g39
g21
tp1207
I216
s(g69
g39
g12
tp1208
I192
s(g9
g9
g8
tp1209
I2
s(g21
g27
g26
tp1210
I515
s(g15
g17
g17
tp1211
I2
s(g8
g23
g26
tp1212
I154
s(g39
g25
g55
tp1213
I44
s(g26
g25
g17
tp1214
I1
s(g4
g21
g50
tp1215
I272
s(g23
g30
g26
tp1216
I385
s(g18
g31
g26
tp1217
I4
s(g5
g26
g25
tp1218
I1
s(g27
g25
g26
tp1219
I16
s(g26
g6
g15
tp1220
I1
s(g171
g26
g23
tp1221
I33
s(g26
g74
g39
tp1222
I1
s(g18
g23
g10
tp1223
I192
s(g10
g12
g25
tp1224
I1
s(g39
g26
g31
tp1225
I19
s(g18
g17
g31
tp1226
I192
s(g27
g26
g9
tp1227
I128
s(g4
g21
g35
tp1228
I1
s(g171
g4
g17
tp1229
I21
s(g39
g4
g39
tp1230
I50
s(g5
g27
g55
tp1231
I1
s(g5
g69
g21
tp1232
I2
s(g21
g10
g12
tp1233
I1
s(g9
g17
g6
tp1234
I44
s(g26
g69
g21
tp1235
I89
s(g23
g12
g5
tp1236
I2
s(g27
g39
g8
tp1237
I125
s(g18
g30
g18
tp1238
I19
s(g12
g27
g23
tp1239
I1
s(g15
g6
g18
tp1240
I2
s(g15
g21
g74
tp1241
I10
s(g17
g8
g18
tp1242
I430
s(g26
g4
g18
tp1243
I187
s(g12
g8
g5
tp1244
I5
s(g8
g8
g12
tp1245
I1768
s(g5
g31
g15
tp1246
I82
s(g6
g31
g25
tp1247
I8
s(g5
g12
g35
tp1248
I4
s(g26
g23
g27
tp1249
I12
s(g15
g21
g39
tp1250
I291
s(g5
g171
g26
tp1251
I9
s(g14
g5
g14
tp1252
I55
s(g15
g39
g8
tp1253
I693
s(g8
g21
g14
tp1254
I724
s(g18
g31
g6
tp1255
I2
s(g30
g26
g18
tp1256
I179
s(g39
g35
g23
tp1257
I5
s(g21
g26
g15
tp1258
I2
s(g12
g74
g21
tp1259
I1
s(g31
g26
g31
tp1260
I545
s(g17
g5
g27
tp1261
I285
s(g17
g23
g5
tp1262
I31
s(g8
g17
g21
tp1263
I37
s(g171
g21
g25
tp1264
I3
s(g4
g23
g39
tp1265
I3
s(g6
g25
g26
tp1266
I54
s(g18
g27
g17
tp1267
I39
s(g5
g18
g26
tp1268
I290
s(g27
g21
g23
tp1269
I649
s(g5
g35
g35
tp1270
I2
s(g14
g5
g15
tp1271
I1
s(g39
g5
g50
tp1272
I1
s(g9
g5
g69
tp1273
I5
s(g10
g21
g6
tp1274
I2065
s(g95
g50
tp1275
I1874
s(g6
g55
g39
tp1276
I25
s(g18
g10
g15
tp1277
I24
s(g55
g10
g39
tp1278
I1
s(g30
g21
g4
tp1279
I32
s(g26
g21
g27
tp1280
I34
s(g55
g39
g18
tp1281
I11
s(g27
g39
g4
tp1282
I135
s(g21
g39
g17
tp1283
I331
s(g15
g8
g39
tp1284
I3
s(g14
g25
g26
tp1285
I1
s(g18
g10
g6
tp1286
I4
s(g39
g6
g17
tp1287
I15
s(g6
g5
g17
tp1288
I12
s(g12
g14
g26
tp1289
I29
s(g4
g8
g12
tp1290
I256
s(g171
g4
g25
tp1291
I3
s(g25
g25
g21
tp1292
I107
s(g30
g18
g21
tp1293
I3
s(g26
g6
g6
tp1294
I48
s(g15
g4
g18
tp1295
I1
s(g50
g18
g35
tp1296
I1
s(g14
g39
g55
tp1297
I1
s(g8
g69
g8
tp1298
I2
s(g30
g27
g21
tp1299
I39
s(g9
g21
g17
tp1300
I1
s(g6
g31
g21
tp1301
I433
s(g31
g17
g15
tp1302
I143
s(g5
g30
g5
tp1303
I5
s(g25
g21
g5
tp1304
I14
s(g5
g106
g17
tp1305
I13
s(g6
g5
g23
tp1306
I36
s(g6
g6
g17
tp1307
I8
s(g8
g5
g17
tp1308
I25
s(g18
g17
g23
tp1309
I195
s(g95
g15
tp1310
I7957
s(g25
g39
g39
tp1311
I240
s(g171
g21
g21
tp1312
I1
s(g25
g31
g17
tp1313
I7
s(g17
g18
g26
tp1314
I924
s(g23
g10
g39
tp1315
I324
s(g50
g21
g5
tp1316
I20
s(g23
g4
g8
tp1317
I87
s(g26
g4
g5
tp1318
I143
s(g31
g5
g35
tp1319
I7
s(g35
g6
g12
tp1320
I1
s(g31
g25
g39
tp1321
I5
s(g12
g5
g4
tp1322
I1
s(g4
g17
g26
tp1323
I15
s(g18
g26
g35
tp1324
I9
s(g50
g50
g26
tp1325
I6
s(g25
g18
g5
tp1326
I1
s(g14
g15
g21
tp1327
I1
s(g21
g31
g26
tp1328
I1109
s(g14
g14
g39
tp1329
I143
s(g15
g21
g27
tp1330
I333
s(g39
g27
g23
tp1331
I2
s(g35
g39
g6
tp1332
I118
s(g12
g35
g26
tp1333
I3
s(g39
g14
g30
tp1334
I2
s(g5
g27
g14
tp1335
I59
s(g10
g26
g35
tp1336
I9
s(g6
g9
g4
tp1337
I30
s(g27
g4
g31
tp1338
I1
s(g14
g26
g25
tp1339
I2
s(g27
g31
g35
tp1340
I1
s(g18
g23
g9
tp1341
I1
s(g15
g14
g12
tp1342
I4
s(g18
g39
g35
tp1343
I1
s(g18
g4
g27
tp1344
I152
s(g21
g69
g21
tp1345
I195
s(g17
g26
g39
tp1346
I1
s(g35
g26
g50
tp1347
I86
s(g21
g26
g23
tp1348
I53
s(g50
g5
g8
tp1349
I77
s(g21
g27
g30
tp1350
I65
s(g10
g17
g23
tp1351
I12
s(g39
g4
g26
tp1352
I162
s(g5
g15
g17
tp1353
I23
s(g4
g9
g39
tp1354
I1
s(g26
g10
g5
tp1355
I19
s(g21
g23
g27
tp1356
I41
s(g39
g31
g69
tp1357
I4
s(g31
g21
g17
tp1358
I38
s(g31
g39
g171
tp1359
I7
s(g18
g21
g27
tp1360
I267
s(g12
g26
g15
tp1361
I1
s(g17
g4
g35
tp1362
I2
s(g10
g17
g5
tp1363
I1
s(g6
g12
g21
tp1364
I3
s(g6
g17
g18
tp1365
I17
s(g15
g12
g26
tp1366
I2
s(g8
g4
g27
tp1367
I143
s(g35
g5
g31
tp1368
I10
s(g39
g27
g27
tp1369
I395
s(g8
g39
g74
tp1370
I15
s(g9
g27
g5
tp1371
I276
s(g31
g17
g6
tp1372
I23
s(g18
g23
g39
tp1373
I124
s(g39
g15
g27
tp1374
I2
s(g106
g17
g26
tp1375
I463
s(g39
g6
g23
tp1376
I310
s(g50
g23
g23
tp1377
I1
s(g21
g4
g12
tp1378
I447
s(g15
g69
g8
tp1379
I31
s(g27
g27
g4
tp1380
I1
s(g5
g74
g30
tp1381
I7
s(g30
g21
g18
tp1382
I39
s(g39
g18
g18
tp1383
I325
s(g8
g9
g27
tp1384
I7
s(g21
g9
g14
tp1385
I1
s(g69
g26
g23
tp1386
I176
s(g10
g5
g15
tp1387
I191
s(g39
g17
g5
tp1388
I4
s(g4
g21
g23
tp1389
I1079
s(g15
g26
g27
tp1390
I96
s(g39
g30
g12
tp1391
I6
s(g27
g39
g9
tp1392
I139
s(g27
g17
g69
tp1393
I3
s(g5
g69
g4
tp1394
I347
s(g39
g171
g12
tp1395
I7
s(g31
g17
g23
tp1396
I239
s(g5
g18
g39
tp1397
I113
s(g4
g5
g21
tp1398
I393
s(g21
g8
g69
tp1399
I1
s(g17
g74
g21
tp1400
I1
s(g25
g21
g31
tp1401
I19
s(g4
g8
g69
tp1402
I1
s(g26
g6
g14
tp1403
I3
s(g14
g10
g21
tp1404
I72
s(g6
g4
g21
tp1405
I675
s(g6
g15
g26
tp1406
I19
s(g39
g6
g6
tp1407
I47
s(g21
g25
g21
tp1408
I53
s(g5
g31
g18
tp1409
I83
s(g9
g26
g4
tp1410
I598
s(g25
g5
g6
tp1411
I135
s(g31
g55
g39
tp1412
I3
s(g35
g5
g14
tp1413
I3
s(g5
g23
g18
tp1414
I3
s(g12
g5
g30
tp1415
I3
s(g8
g26
g27
tp1416
I245
s(g9
g31
g14
tp1417
I1
s(g35
g5
g15
tp1418
I9
s(g27
g9
g26
tp1419
I26
s(g9
g39
g5
tp1420
I15
s(g50
g26
g23
tp1421
I8
s(g10
g26
g50
tp1422
I3
s(g21
g9
g27
tp1423
I3
s(g5
g9
g31
tp1424
I1
s(g15
g39
g21
tp1425
I2
s(g35
g5
g26
tp1426
I1
s(g18
g30
g27
tp1427
I6
s(g14
g8
g18
tp1428
I1
s(g18
g15
g18
tp1429
I8
s(g21
g27
g18
tp1430
I59
s(g50
g21
g6
tp1431
I360
s(g5
g23
g15
tp1432
I4
s(g39
g5
g15
tp1433
I11
s(g25
g15
g26
tp1434
I1
s(g17
g25
g25
tp1435
I61
s(g26
g4
g10
tp1436
I450
s(g4
g74
g26
tp1437
I4
s(g18
g17
g15
tp1438
I80
s(g69
g5
g6
tp1439
I145
s(g18
g69
g12
tp1440
I3
s(g26
g30
g18
tp1441
I52
s(g21
g4
g23
tp1442
I189
s(g21
g30
g26
tp1443
I941
s(g18
g4
g69
tp1444
I2
s(g8
g14
g5
tp1445
I3
s(g26
g5
g17
tp1446
I93
s(g4
g39
g106
tp1447
I1
s(g15
g26
g23
tp1448
I14
s(g50
g14
g50
tp1449
I1
s(g26
g23
g26
tp1450
I175
s(g18
g5
g4
tp1451
I159
s(g6
g26
g35
tp1452
I513
s(g31
g5
g74
tp1453
I8
s(g39
g4
g18
tp1454
I92
s(g10
g12
g14
tp1455
I43
s(g18
g30
g8
tp1456
I5
s(g6
g18
g12
tp1457
I3
s(g31
g35
g39
tp1458
I2
s(g4
g18
g4
tp1459
I29
s(g18
g8
g17
tp1460
I3
s(g27
g8
g26
tp1461
I50
s(g10
g5
g6
tp1462
I1041
s(g95
g27
tp1463
I7277
s(g4
g4
g9
tp1464
I2
s(g39
g18
g14
tp1465
I61
s(g39
g17
g74
tp1466
I5
s(g39
g39
g69
tp1467
I68
s(g69
g39
g25
tp1468
I1
s(g39
g31
g39
tp1469
I26
s(g14
g17
g31
tp1470
I20
s(g10
g26
g9
tp1471
I2
s(g12
g4
g17
tp1472
I1
s(g6
g23
g17
tp1473
I11
s(g27
g4
g5
tp1474
I56
s(g10
g69
g8
tp1475
I1
s(g10
g39
g25
tp1476
I3
s(g10
g5
g39
tp1477
I7
s(g25
g39
g74
tp1478
I1
s(g23
g39
g15
tp1479
I1146
s(g35
g15
g26
tp1480
I2
s(g6
g10
g26
tp1481
I7
s(g5
g8
g69
tp1482
I25
s(g4
g9
g27
tp1483
I2
s(g27
g5
g17
tp1484
I150
s(g35
g8
g21
tp1485
I158
s(g39
g8
g8
tp1486
I363
s(g26
g18
g27
tp1487
I1
s(g18
g4
g14
tp1488
I2
s(g14
g17
g25
tp1489
I73
s(g14
g27
g39
tp1490
I68
s(g23
g4
g21
tp1491
I527
s(g17
g15
g69
tp1492
I1
s(g39
g18
g5
tp1493
I10
s(g6
g6
g21
tp1494
I163
s(g21
g17
g15
tp1495
I68
s(g26
g31
g35
tp1496
I19
s(g27
g14
g27
tp1497
I3
s(g21
g27
g21
tp1498
I352
s(g17
g27
g30
tp1499
I15
s(g23
g12
g6
tp1500
I3
s(g31
g17
g31
tp1501
I38
s(g17
g8
g21
tp1502
I215
s(g21
g14
g4
tp1503
I32
s(g21
g8
g39
tp1504
I17
s(g10
g5
g14
tp1505
I322
s(g4
g39
g50
tp1506
I6
s(g6
g157
tp1507
I11836
s(g5
g23
g26
tp1508
I599
s(g8
g9
g25
tp1509
I1
s(g15
g15
g39
tp1510
I89
s(g23
g10
g4
tp1511
I2
s(g26
g31
g15
tp1512
I5
s(g31
g31
g26
tp1513
I362
s(g31
g26
g171
tp1514
I16
s(g14
g17
g15
tp1515
I25
s(g12
g39
g17
tp1516
I3335
s(g39
g39
g15
tp1517
I359
s(g26
g12
g5
tp1518
I1
s(g15
g26
g30
tp1519
I5
s(g6
g39
g9
tp1520
I9
s(g27
g31
g12
tp1521
I3
s(g4
g26
g12
tp1522
I3
s(g31
g8
g12
tp1523
I54
s(g6
g26
g26
tp1524
I213
s(g6
g8
g39
tp1525
I7
s(g18
g23
g17
tp1526
I68
s(g21
g9
g74
tp1527
I3
s(g23
g106
g17
tp1528
I13
s(g4
g10
g4
tp1529
I3
s(g17
g6
g10
tp1530
I11
s(g5
g50
g12
tp1531
I41
s(g8
g26
g106
tp1532
I59
s(g15
g39
g15
tp1533
I198
s(g21
g69
g17
tp1534
I54
s(g8
g26
g30
tp1535
I1
s(g55
g39
g21
tp1536
I51
s(g14
g17
g9
tp1537
I1
s(g17
g74
g26
tp1538
I1
s(g30
g23
g10
tp1539
I1
s(g27
g9
g39
tp1540
I2
s(g50
g26
g15
tp1541
I44
s(g31
g5
g26
tp1542
I2
s(g25
g17
g27
tp1543
I55
s(g26
g14
g26
tp1544
I172
s(g17
g8
g30
tp1545
I160
s(g5
g25
g35
tp1546
I1
s(g5
g21
g15
tp1547
I57
s(g23
g27
g21
tp1548
I128
s(g18
g4
g17
tp1549
I297
s(g14
g8
g21
tp1550
I257
s(g27
g30
g18
tp1551
I18
s(g26
g35
g14
tp1552
I5
s(g27
g18
g4
tp1553
I17
s(g39
g8
g18
tp1554
I268
s(g23
g12
g15
tp1555
I1
s(g17
g4
g5
tp1556
I29
s(g23
g10
g12
tp1557
I15
s(g21
g23
g26
tp1558
I1242
s(g5
g6
g30
tp1559
I200
s(g23
g30
g23
tp1560
I1
s(g9
g5
g25
tp1561
I7
s(g23
g5
g31
tp1562
I18
s(g39
g14
g27
tp1563
I217
s(g9
g25
g26
tp1564
I1
s(g39
g30
g4
tp1565
I2
s(g26
g8
g55
tp1566
I1
s(g5
g12
g6
tp1567
I3
s(g8
g4
g26
tp1568
I280
s(g17
g9
g27
tp1569
I31
s(g6
g17
g26
tp1570
I68
s(g23
g21
g6
tp1571
I171
s(g35
g21
g69
tp1572
I34
s(g5
g8
g4
tp1573
I1498
s(g31
g26
g17
tp1574
I1
s(g26
g9
g15
tp1575
I1
s(g5
g9
g9
tp1576
I76
s(g8
g39
g15
tp1577
I1148
s(g35
g27
g12
tp1578
I94
s(g23
g17
g21
tp1579
I12
s(g31
g6
g21
tp1580
I7
s(g18
g21
g14
tp1581
I15
s(g14
g39
g6
tp1582
I175
s(g26
g8
g17
tp1583
I13
s(g171
g39
g8
tp1584
I4
s(g17
g31
g31
tp1585
I246
s(g27
g21
g39
tp1586
I41
s(g8
g26
g55
tp1587
I21
s(g18
g4
g50
tp1588
I2
s(g17
g30
g5
tp1589
I2
s(g39
g31
g26
tp1590
I147
s(g26
g15
g39
tp1591
I185
s(g8
g18
g4
tp1592
I405
s(g18
g10
g21
tp1593
I325
s(g10
g25
g8
tp1594
I1
s(g26
g17
g8
tp1595
I32
s(g6
g74
g12
tp1596
I8
s(g31
g31
g17
tp1597
I1
s(g9
g5
g21
tp1598
I398
s(g15
g14
g26
tp1599
I159
s(g4
g35
g21
tp1600
I171
s(g26
g106
g35
tp1601
I1
s(g14
g50
g23
tp1602
I1
s(g8
g31
g27
tp1603
I61
s(g27
g27
g17
tp1604
I24
s(g23
g5
g15
tp1605
I309
s(g17
g21
g8
tp1606
I58
s(g17
g6
g30
tp1607
I75
s(g14
g17
g8
tp1608
I109
s(g39
g30
g21
tp1609
I242
s(g4
g12
g5
tp1610
I3
s(g31
g18
g4
tp1611
I12
s(g27
g26
g25
tp1612
I12
s(g6
g23
g21
tp1613
I155
s(g6
g5
g6
tp1614
I76
s(g27
g21
g74
tp1615
I140
s(g55
g17
g21
tp1616
I83
s(g14
g39
g9
tp1617
I2
s(g15
g5
g18
tp1618
I202
s(g26
g23
g30
tp1619
I138
s(g4
g4
g27
tp1620
I541
s(g17
g9
g8
tp1621
I1
s(g8
g31
g23
tp1622
I1
s(g5
g25
g23
tp1623
I2
s(g17
g26
g12
tp1624
I2
s(g8
g17
g18
tp1625
I156
s(g26
g39
g17
tp1626
I45
s(g5
g23
g39
tp1627
I75
s(g14
g26
g5
tp1628
I360
s(g26
g171
g106
tp1629
I3
s(g8
g25
g27
tp1630
I17
s(g6
g18
g4
tp1631
I405
s(g6
g21
g18
tp1632
I263
s(g9
g5
g14
tp1633
I18
s(g10
g39
g69
tp1634
I2
s(g31
g5
g18
tp1635
I30
s(g8
g23
g23
tp1636
I2
s(g39
g18
g15
tp1637
I1
s(g35
g39
g27
tp1638
I19
s(g8
g4
g35
tp1639
I19
s(g10
g12
g4
tp1640
I18
s(g39
g74
g74
tp1641
I1
s(g4
g25
g27
tp1642
I1
s(g39
g12
g26
tp1643
I25
s(g12
g26
g4
tp1644
I103
s(g26
g171
g10
tp1645
I21
s(g74
g26
g4
tp1646
I1
s(g6
g12
g15
tp1647
I15
s(g6
g14
g27
tp1648
I23
s(g10
g26
g4
tp1649
I144
s(g6
g6
g12
tp1650
I213
s(g4
g4
g5
tp1651
I97
s(g10
g25
g12
tp1652
I1
s(g8
g14
g17
tp1653
I3
s(g17
g69
g5
tp1654
I4
s(g69
g26
g12
tp1655
I3
s(g8
g6
g18
tp1656
I68
s(g23
g26
g69
tp1657
I12
s(g17
g14
g14
tp1658
I150
s(g14
g5
g25
tp1659
I11
s(g39
g6
g9
tp1660
I634
s(g26
g31
g9
tp1661
I91
s(g18
g39
g5
tp1662
I18
s(g6
g4
g15
tp1663
I19
s(g5
g171
g27
tp1664
I1
s(g5
g6
g26
tp1665
I171
s(g25
g18
g21
tp1666
I4
s(g4
g39
g12
tp1667
I14
s(g9
g39
g17
tp1668
I10
s(g6
g5
g31
tp1669
I51
s(g18
g5
g69
tp1670
I57
s(g27
g12
g12
tp1671
I1
s(g26
g31
g6
tp1672
I8
s(g6
g30
g25
tp1673
I1
s(g27
g4
g27
tp1674
I3
s(g26
g21
g5
tp1675
I3
s(g9
g9
g18
tp1676
I35
s(g6
g14
g8
tp1677
I9
s(g26
g8
g14
tp1678
I67
s(g35
g8
g17
tp1679
I2
s(g30
g6
g26
tp1680
I194
s(g26
g35
g18
tp1681
I55
s(g6
g25
g6
tp1682
I1
s(g26
g18
g26
tp1683
I393
s(g31
g9
g21
tp1684
I16
s(g6
g23
g10
tp1685
I222
s(g26
g74
g21
tp1686
I14
s(g5
g171
g5
tp1687
I8
s(g10
g21
g14
tp1688
I147
s(g31
g23
g39
tp1689
I1
s(g26
g31
g5
tp1690
I18
s(g31
g17
g4
tp1691
I13
s(g6
g21
g55
tp1692
I1
s(g18
g8
g26
tp1693
I5
s(g4
g39
g69
tp1694
I3
s(g14
g5
g5
tp1695
I2
s(g74
g21
g14
tp1696
I25
s(g30
g4
g5
tp1697
I9
s(g10
g4
g15
tp1698
I15
s(g8
g21
g15
tp1699
I104
s(g14
g26
g31
tp1700
I510
s(g5
g26
g39
tp1701
I3
s(g8
g4
g8
tp1702
I26
s(g8
g12
g6
tp1703
I1
s(g14
g21
g39
tp1704
I14
s(g21
g18
g18
tp1705
I222
s(g15
g5
g14
tp1706
I3
s(g26
g15
g12
tp1707
I6
s(g17
g25
g5
tp1708
I4
s(g5
g6
g74
tp1709
I2
s(g17
g8
g15
tp1710
I22
s(g21
g26
g14
tp1711
I2
s(g21
g6
g69
tp1712
I136
s(g26
g12
g69
tp1713
I1
s(g74
g25
g39
tp1714
I18
s(g39
g4
g21
tp1715
I239
s(g27
g69
g23
tp1716
I1
s(g4
g21
g31
tp1717
I16
s(g14
g39
g30
tp1718
I76
s(g26
g35
g10
tp1719
I29
s(g18
g14
g12
tp1720
I7
s(g5
g171
g21
tp1721
I43
s(g5
g27
g5
tp1722
I77
s(g5
g18
g23
tp1723
I24
s(g27
g21
g26
tp1724
I315
s(g17
g14
g8
tp1725
I15
s(g17
g30
g21
tp1726
I1
s(g39
g5
g30
tp1727
I42
s(g8
g25
g5
tp1728
I33
s(g26
g21
g6
tp1729
I374
s(g39
g6
g14
tp1730
I2
s(g15
g14
g39
tp1731
I131
s(g95
g74
tp1732
I89
s(g14
g26
g39
tp1733
I214
s(g31
g21
g171
tp1734
I2
s(g5
g9
g8
tp1735
I231
s(g27
g12
g31
tp1736
I4
s(g74
g26
g35
tp1737
I2
s(g14
g5
g55
tp1738
I2
s(g8
g17
g39
tp1739
I2
s(g5
g17
g27
tp1740
I75
s(g23
g26
g26
tp1741
I29
s(g12
g18
g4
tp1742
I108
s(g4
g31
g8
tp1743
I1
s(g50
g5
g10
tp1744
I1
s(g15
g17
g69
tp1745
I16
s(g69
g69
g39
tp1746
I28
s(g21
g6
g106
tp1747
I20
s(g5
g69
g18
tp1748
I1
s(g23
g8
g5
tp1749
I260
s(g21
g18
g12
tp1750
I3
s(g18
g4
g5
tp1751
I1292
s(g18
g69
g39
tp1752
I11
s(g25
g69
g27
tp1753
I2
s(g21
g31
g18
tp1754
I45
s(g26
g171
g14
tp1755
I362
s(g17
g23
g39
tp1756
I1
s(g6
g21
g39
tp1757
I23
s(g8
g39
g50
tp1758
I127
s(g39
g18
g21
tp1759
I127
s(g31
g21
g5
tp1760
I232
s(g17
g5
g69
tp1761
I2
s(g12
g6
g23
tp1762
I1
s(g12
g69
g69
tp1763
I89
s(g5
g21
g12
tp1764
I1
s(g35
g25
g5
tp1765
I4
s(g17
g74
g39
tp1766
I5
s(g8
g55
g27
tp1767
I1
s(g23
g18
g39
tp1768
I1
s(g10
g17
g6
tp1769
I206
s(g5
g9
g27
tp1770
I12
s(g26
g6
g27
tp1771
I169
s(g14
g26
g74
tp1772
I1
s(g21
g4
g39
tp1773
I91
s(g31
g69
g39
tp1774
I4
s(g21
g15
g25
tp1775
I65
s(g27
g26
g69
tp1776
I154
s(g6
g25
g39
tp1777
I2
s(g18
g17
g106
tp1778
I1
s(g6
g26
g69
tp1779
I8
s(g14
g10
g18
tp1780
I9
s(g23
g4
g5
tp1781
I44
s(g4
g25
g18
tp1782
I1
s(g26
g39
g6
tp1783
I101
s(g18
g26
g17
tp1784
I14
s(g25
g26
g6
tp1785
I155
s(g5
g69
g69
tp1786
I203
s(g5
g10
g5
tp1787
I9
s(g69
g27
g12
tp1788
I99
s(g35
g55
g39
tp1789
I5
s(g4
g35
g10
tp1790
I1
s(g10
g5
g10
tp1791
I1
s(g18
g18
g25
tp1792
I3
s(g39
g21
g6
tp1793
I596
s(g35
g25
g12
tp1794
I2
s(g14
g39
g5
tp1795
I1
s(g30
g26
g8
tp1796
I276
s(g23
g17
g5
tp1797
I1
s(g21
g27
g15
tp1798
I23
s(g23
g5
g30
tp1799
I13
s(g6
g17
g39
tp1800
I7
s(g39
g23
g30
tp1801
I650
s(g31
g39
g17
tp1802
I67
s(g15
g39
g18
tp1803
I348
s(g6
g69
g8
tp1804
I6
s(g8
g23
g8
tp1805
I1
s(g31
g26
g10
tp1806
I2
s(g9
g25
g39
tp1807
I9
s(g4
g39
g8
tp1808
I641
s(g39
g15
g26
tp1809
I1563
s(g12
g6
g31
tp1810
I1
s(g26
g35
g15
tp1811
I3
s(g74
g26
g31
tp1812
I177
s(g18
g23
g14
tp1813
I1
s(g31
g23
g18
tp1814
I2
s(g4
g18
g15
tp1815
I4
s(g27
g26
g39
tp1816
I34
s(g21
g10
g31
tp1817
I1
s(g30
g17
g12
tp1818
I1
s(g9
g9
g12
tp1819
I8
s(g8
g31
g26
tp1820
I222
s(g23
g5
g8
tp1821
I449
s(g10
g26
g25
tp1822
I1
s(g35
g18
g8
tp1823
I1
s(g31
g15
g5
tp1824
I27
s(g26
g35
g6
tp1825
I3
s(g39
g6
g26
tp1826
I2013
s(g9
g5
g9
tp1827
I23
s(g30
g6
g39
tp1828
I584
s(g9
g17
g5
tp1829
I84
s(g26
g27
g25
tp1830
I17
s(g30
g18
g14
tp1831
I12
s(g21
g23
g12
tp1832
I14
s(g21
g26
g8
tp1833
I167
s(g23
g35
g5
tp1834
I1
s(g21
g74
g26
tp1835
I248
s(g25
g8
g26
tp1836
I269
s(g74
g12
g15
tp1837
I3
s(g25
g12
g14
tp1838
I1
s(g6
g9
g21
tp1839
I179
s(g4
g14
g17
tp1840
I1
s(g27
g17
g18
tp1841
I80
s(g14
g18
g4
tp1842
I13
s(g25
g15
g21
tp1843
I4
s(g23
g4
g6
tp1844
I1
s(g21
g5
g30
tp1845
I7
s(g31
g27
g5
tp1846
I10
s(g6
g26
g9
tp1847
I18
s(g10
g21
g25
tp1848
I18
s(g30
g21
g25
tp1849
I2
s(g26
g27
g17
tp1850
I5
s(g18
g21
g6
tp1851
I536
s(g39
g18
g69
tp1852
I1
s(g39
g6
g8
tp1853
I3
s(g18
g6
g9
tp1854
I5
s(g21
g27
g8
tp1855
I1
s(g39
g12
g18
tp1856
I60
s(g12
g35
g39
tp1857
I2
s(g30
g18
g9
tp1858
I1
s(g39
g69
g17
tp1859
I2
s(g18
g9
g26
tp1860
I2
s(g5
g25
g18
tp1861
I113
s(g27
g50
g21
tp1862
I13
s(g17
g5
g31
tp1863
I26
s(g26
g21
g9
tp1864
I128
s(g69
g4
g8
tp1865
I2
s(g39
g39
g5
tp1866
I1
s(g26
g35
g25
tp1867
I4
s(g30
g39
g39
tp1868
I1
s(g17
g18
g23
tp1869
I22
s(g39
g35
g27
tp1870
I215
s(g5
g17
g50
tp1871
I3
s(g15
g39
g5
tp1872
I36
s(g21
g21
g27
tp1873
I4
s(g25
g39
g6
tp1874
I58
s(g26
g18
g15
tp1875
I4
s(g9
g5
g6
tp1876
I260
s(g10
g21
g50
tp1877
I33
s(g17
g27
g9
tp1878
I12
s(g8
g21
g17
tp1879
I22
s(g15
g26
g35
tp1880
I36
s(g14
g18
g39
tp1881
I6
s(g31
g12
g6
tp1882
I13
s(g17
g6
g18
tp1883
I107
s(g69
g17
g4
tp1884
I24
s(g17
g26
g18
tp1885
I166
s(g5
g23
g106
tp1886
I13
s(g31
g25
g17
tp1887
I2
s(g25
g12
g26
tp1888
I6
s(g17
g30
g39
tp1889
I6
s(g21
g31
g31
tp1890
I252
s(g27
g23
g17
tp1891
I17
s(g9
g10
g27
tp1892
I28
s(g39
g23
g10
tp1893
I20
s(g26
g6
g50
tp1894
I46
s(g21
g23
g4
tp1895
I161
s(g10
g27
g21
tp1896
I7
s(g6
g4
g9
tp1897
I2
s(g27
g15
g18
tp1898
I1
s(g35
g18
g12
tp1899
I4
s(g21
g15
g4
tp1900
I1
s(g9
g21
g27
tp1901
I47
s(g14
g8
g17
tp1902
I11
s(g15
g12
g8
tp1903
I63
s(g26
g5
g18
tp1904
I825
s(g15
g26
g12
tp1905
I17
s(g18
g30
g39
tp1906
I3
s(g18
g4
g8
tp1907
I966
s(g5
g6
g35
tp1908
I23
s(g4
g23
g8
tp1909
I4
s(g55
g17
g18
tp1910
I509
s(g4
g26
g50
tp1911
I39
s(g27
g18
g5
tp1912
I3
s(g31
g23
g10
tp1913
I1
s(g25
g26
g31
tp1914
I224
s(g25
g39
g35
tp1915
I76
s(g23
g5
g18
tp1916
I258
s(g27
g5
g21
tp1917
I248
s(g4
g17
g35
tp1918
I3
s(g4
g35
g4
tp1919
I1
s(g31
g35
g5
tp1920
I18
s(g12
g26
g27
tp1921
I84
s(g27
g27
g6
tp1922
I5
s(g21
g39
g5
tp1923
I1
s(g39
g6
g106
tp1924
I4
s(g21
g23
g23
tp1925
I10
s(g12
g4
g26
tp1926
I1
s(g35
g21
g15
tp1927
I6
s(g18
g21
g15
tp1928
I154
s(g12
g5
g35
tp1929
I13
s(g31
g5
g21
tp1930
I30
s(g6
g21
g171
tp1931
I9
s(g4
g5
g14
tp1932
I81
s(g15
g21
g31
tp1933
I106
s(g39
g27
g30
tp1934
I5
s(g4
g15
g14
tp1935
I1
s(g55
g17
g9
tp1936
I14
s(g10
g39
g39
tp1937
I262
s(g171
g12
g27
tp1938
I1
s(g26
g171
g23
tp1939
I162
s(g26
g18
g10
tp1940
I53
s(g8
g26
g50
tp1941
I128
s(g17
g8
g50
tp1942
I33
s(g6
g26
g12
tp1943
I55
s(g25
g35
g5
tp1944
I1
s(g35
g8
g39
tp1945
I61
s(g74
g74
g5
tp1946
I3
s(g17
g27
g25
tp1947
I5
s(g6
g18
g69
tp1948
I36
s(g39
g15
g30
tp1949
I2
s(g39
g25
g17
tp1950
I1
s(g39
g15
g39
tp1951
I38
s(g30
g39
g27
tp1952
I3
s(g23
g39
g39
tp1953
I92
s(g10
g5
g27
tp1954
I318
s(g23
g21
g8
tp1955
I64
s(g31
g4
g15
tp1956
I1
s(g55
g5
g6
tp1957
I21
s(g18
g30
g4
tp1958
I1
s(g4
g26
g10
tp1959
I2
s(g27
g69
g35
tp1960
I12
s(g15
g21
g55
tp1961
I1
s(g5
g21
g23
tp1962
I13
s(g69
g26
g8
tp1963
I326
s(g8
g171
g4
tp1964
I1
s(g27
g17
g5
tp1965
I39
s(g18
g21
g31
tp1966
I505
s(g15
g15
g25
tp1967
I1
s(g30
g27
g5
tp1968
I10
s(g9
g27
g21
tp1969
I135
s(g5
g25
g4
tp1970
I1
s(g35
g5
g27
tp1971
I298
s(g69
g31
g15
tp1972
I1
s(g8
g18
g18
tp1973
I3
s(g4
g25
g17
tp1974
I4
s(g14
g5
g17
tp1975
I56
s(g171
g14
g27
tp1976
I108
s(g12
g23
g5
tp1977
I3
s(g6
g18
g39
tp1978
I61
s(g39
g6
g30
tp1979
I7
s(g31
g39
g5
tp1980
I1
s(g5
g12
g18
tp1981
I300
s(g26
g5
g14
tp1982
I93
s(g30
g15
g5
tp1983
I4
s(g69
g5
g15
tp1984
I83
s(g4
g50
g21
tp1985
I1
s(g9
g26
g25
tp1986
I17
s(g35
g6
g14
tp1987
I1
s(g4
g17
g14
tp1988
I35
s(g12
g5
g21
tp1989
I1
s(g5
g6
g50
tp1990
I2
s(g26
g4
g21
tp1991
I264
s(g15
g4
g25
tp1992
I2
s(g23
g30
g4
tp1993
I16
s(g14
g23
g25
tp1994
I1
s(g15
g26
g31
tp1995
I513
s(g9
g21
g8
tp1996
I118
s(g26
g8
g9
tp1997
I170
s(g8
g23
g4
tp1998
I1
s(g6
g26
g39
tp1999
I18
s(g39
g39
g39
tp2000
I28
s(g18
g25
g6
tp2001
I55
s(g18
g14
g26
tp2002
I531
s(g5
g26
g27
tp2003
I14
s(g15
g9
g18
tp2004
I1
s(g31
g31
g21
tp2005
I107
s(g8
g39
g26
tp2006
I1
s(g26
g10
g12
tp2007
I1
s(g21
g14
g21
tp2008
I17
s(g15
g18
g18
tp2009
I1
s(g8
g39
g35
tp2010
I455
s(g17
g171
g17
tp2011
I3
s(g8
g30
g12
tp2012
I1
s(g8
g21
g21
tp2013
I1
s(g30
g6
g17
tp2014
I5
s(g23
g39
g9
tp2015
I24
s(g25
g27
g21
tp2016
I216
s(g8
g26
g31
tp2017
I1285
s(g21
g18
g39
tp2018
I70
s(g15
g27
g12
tp2019
I28
s(g23
g27
g12
tp2020
I2
s(g9
g6
g26
tp2021
I52
s(g25
g26
g8
tp2022
I728
s(g8
g39
g106
tp2023
I6
s(g171
g14
g26
tp2024
I154
s(g17
g27
g26
tp2025
I78
s(g39
g9
g10
tp2026
I1
s(g8
g4
g23
tp2027
I3
s(g4
g21
g14
tp2028
I55
s(g21
g8
g50
tp2029
I2
s(g21
g35
g5
tp2030
I2
s(g23
g39
g27
tp2031
I355
s(g30
g39
g4
tp2032
I3
s(g14
g39
g17
tp2033
I133
s(g9
g9
g26
tp2034
I109
s(g39
g30
g17
tp2035
I1
s(g26
g6
g9
tp2036
I172
s(g6
g23
g4
tp2037
I81
s(g6
g9
g25
tp2038
I10
s(g4
g26
g27
tp2039
I556
s(g39
g17
g35
tp2040
I1
s(g15
g30
g21
tp2041
I1
s(g26
g21
g55
tp2042
I1
s(g15
g17
g171
tp2043
I1
s(g8
g31
g35
tp2044
I2
s(g14
g26
g18
tp2045
I79
s(g18
g14
g27
tp2046
I74
s(g15
g10
g39
tp2047
I70
s(g23
g21
g27
tp2048
I36
s(g39
g4
g27
tp2049
I16
s(g17
g39
g4
tp2050
I11
s(g31
g26
g35
tp2051
I16
s(g8
g12
g25
tp2052
I24
s(g17
g31
g18
tp2053
I158
s(g5
g27
g35
tp2054
I121
s(g17
g21
g31
tp2055
I83
s(g6
g4
g8
tp2056
I315
s(g17
g25
g15
tp2057
I4
s(g21
g9
g39
tp2058
I19
s(g15
g15
g5
tp2059
I49
s(g30
g4
g21
tp2060
I2
s(g27
g5
g30
tp2061
I16
s(g30
g17
g25
tp2062
I5
s(g4
g26
g5
tp2063
I370
s(g17
g27
g27
tp2064
I385
s(g9
g21
g6
tp2065
I603
s(g18
g5
g21
tp2066
I1939
s(g17
g31
g25
tp2067
I13
s(g27
g39
g25
tp2068
I24
s(g35
g26
g31
tp2069
I171
s(g8
g21
g50
tp2070
I141
s(g26
g18
g21
tp2071
I143
s(g27
g17
g39
tp2072
I2
s(g5
g31
g50
tp2073
I96
s(g18
g39
g18
tp2074
I2
s(g4
g10
g27
tp2075
I33
s(g18
g21
g23
tp2076
I165
s(g10
g17
g25
tp2077
I4
s(g39
g8
g10
tp2078
I2
s(g26
g17
g4
tp2079
I14
s(g35
g69
g17
tp2080
I29
s(g21
g8
g8
tp2081
I63
s(g15
g21
g69
tp2082
I3
s(g35
g18
g23
tp2083
I1
s(g25
g26
g35
tp2084
I17
s(g14
g5
g106
tp2085
I1
s(g12
g26
g8
tp2086
I71
s(g18
g9
g8
tp2087
I13
s(g35
g39
g35
tp2088
I12
s(g74
g21
g15
tp2089
I3
s(g6
g74
g27
tp2090
I2
s(g27
g39
g39
tp2091
I1090
s(g21
g30
g5
tp2092
I7
s(g25
g21
g39
tp2093
I17
s(g39
g17
g27
tp2094
I1269
s(g27
g14
g10
tp2095
I43
s(g27
g15
g10
tp2096
I70
s(g69
g8
g26
tp2097
I320
s(g21
g21
g5
tp2098
I3
s(g31
g5
g9
tp2099
I6
s(g5
g12
g31
tp2100
I7
s(g30
g14
g5
tp2101
I1
s(g26
g27
g50
tp2102
I122
s(g4
g18
g5
tp2103
I2
s(g50
g12
g35
tp2104
I2
s(g4
g10
g17
tp2105
I136
s(g5
g27
g17
tp2106
I49
s(g17
g4
g39
tp2107
I52
s(g9
g21
g26
tp2108
I9
s(g18
g35
g26
tp2109
I186
s(g5
g27
g15
tp2110
I207
s(g14
g26
g4
tp2111
I115
s(g8
g5
g35
tp2112
I126
s(g27
g5
g8
tp2113
I494
s(g6
g21
g50
tp2114
I61
s(g5
g4
g39
tp2115
I146
s(g21
g69
g8
tp2116
I1
s(g14
g17
g74
tp2117
I19
s(g21
g18
g5
tp2118
I73
s(g26
g9
g10
tp2119
I2
s(g23
g9
g21
tp2120
I1
s(g35
g27
g5
tp2121
I2
s(g4
g17
g23
tp2122
I22
s(g21
g8
g6
tp2123
I5
s(g5
g9
g17
tp2124
I39
s(g55
g21
g50
tp2125
I2
s(g39
g14
g15
tp2126
I11
s(g26
g50
g39
tp2127
I39
s(g5
g27
g69
tp2128
I332
s(g12
g8
g17
tp2129
I4
s(g30
g39
g10
tp2130
I1
s(g23
g17
g14
tp2131
I114
s(g27
g6
g17
tp2132
I1
s(g39
g6
g21
tp2133
I234
s(g5
g18
g106
tp2134
I100
s(g4
g5
g9
tp2135
I47
s(g17
g23
g18
tp2136
I1
s(g69
g5
g106
tp2137
I5
s(g8
g12
g26
tp2138
I2
s(g30
g26
g12
tp2139
I71
s(g25
g5
g35
tp2140
I5
s(g39
g31
g9
tp2141
I18
s(g10
g5
g9
tp2142
I164
s(g4
g21
g15
tp2143
I610
s(g35
g39
g8
tp2144
I805
s(g5
g12
g12
tp2145
I1
s(g9
g21
g31
tp2146
I6
s(g8
g26
g21
tp2147
I21
s(g8
g39
g27
tp2148
I216
s(g18
g31
g5
tp2149
I13
s(g18
g21
g25
tp2150
I150
s(g18
g39
g23
tp2151
I195
s(g17
g31
g26
tp2152
I210
s(g39
g6
g50
tp2153
I54
s(g4
g50
g9
tp2154
I1
s(g95
g21
tp2155
I3732
s(g17
g4
g69
tp2156
I1
s(g18
g21
g106
tp2157
I1
s(g25
g17
g31
tp2158
I16
s(g27
g26
g23
tp2159
I198
s(g8
g18
g17
tp2160
I16
s(g4
g31
g15
tp2161
I1
s(g26
g14
g39
tp2162
I65
s(g26
g8
g8
tp2163
I252
s(g17
g23
g10
tp2164
I511
s(g25
g5
g14
tp2165
I2
s(g10
g21
g5
tp2166
I15
s(g12
g26
g18
tp2167
I432
s(g31
g4
g10
tp2168
I6
s(g25
g8
g12
tp2169
I35
s(g69
g5
g30
tp2170
I1
s(g10
g26
g39
tp2171
I152
s(g27
g21
g27
tp2172
I11
s(g8
g15
g27
tp2173
I9
s(g10
g21
g8
tp2174
I99
s(g23
g5
g27
tp2175
I808
s(g6
g17
g69
tp2176
I6
s(g23
g25
g23
tp2177
I1
s(g23
g10
g25
tp2178
I5
s(g69
g27
g39
tp2179
I219
s(g5
g8
g23
tp2180
I212
s(g14
g12
g4
tp2181
I6
s(g39
g10
g15
tp2182
I1
s(g4
g9
g17
tp2183
I1
s(g69
g5
g9
tp2184
I1
s(g26
g27
g21
tp2185
I364
s(g171
g21
g27
tp2186
I1
s(g8
g9
g12
tp2187
I21
s(g26
g9
g26
tp2188
I42
s(g50
g5
g6
tp2189
I108
s(g26
g6
g5
tp2190
I91
s(g26
g5
g15
tp2191
I336
s(g18
g23
g27
tp2192
I21
s(g12
g15
g6
tp2193
I4
s(g27
g69
g18
tp2194
I3
s(g8
g25
g21
tp2195
I28
s(g39
g55
g21
tp2196
I3
s(g8
g5
g50
tp2197
I115
s(g10
g26
g12
tp2198
I1448
s(g21
g27
g31
tp2199
I231
s(g15
g21
g171
tp2200
I57
s(g21
g14
g8
tp2201
I1
s(g171
g23
g17
tp2202
I20
s(g18
g5
g30
tp2203
I12
s(g25
g35
g26
tp2204
I1
s(g50
g39
g18
tp2205
I6
s(g8
g26
g25
tp2206
I20
s(g27
g18
g21
tp2207
I21
s(g39
g9
g18
tp2208
I14
s(g171
g17
g27
tp2209
I3
s(g10
g6
g27
tp2210
I1
s(g17
g17
g23
tp2211
I1
s(g5
g31
g21
tp2212
I269
s(g26
g39
g23
tp2213
I2
s(g50
g23
g39
tp2214
I1
s(g6
g39
g6
tp2215
I102
s(g27
g39
g15
tp2216
I14
s(g17
g21
g74
tp2217
I2
s(g25
g18
g26
tp2218
I26
s(g17
g18
g27
tp2219
I168
s(g6
g18
g35
tp2220
I65
s(g18
g18
g35
tp2221
I6
s(g27
g17
g21
tp2222
I7
s(g171
g39
g4
tp2223
I3
s(g21
g17
g8
tp2224
I7
s(g5
g8
g35
tp2225
I6
s(g50
g18
g30
tp2226
I19
s(g69
g8
g39
tp2227
I1163
s(g6
g35
g21
tp2228
I7
s(g27
g5
g106
tp2229
I1
s(g6
g23
g39
tp2230
I125
s(g39
g69
g5
tp2231
I2
s(g171
g4
g12
tp2232
I11
s(g9
g39
g50
tp2233
I14
s(g8
g31
g12
tp2234
I5
s(g50
g39
g5
tp2235
I1
s(g6
g5
g12
tp2236
I4
s(g6
g5
g50
tp2237
I21
s(g26
g25
g21
tp2238
I1
s(g17
g39
g17
tp2239
I28
s(g31
g23
g5
tp2240
I69
s(g17
g26
g14
tp2241
I1
s(g5
g8
g12
tp2242
I374
s(g23
g23
g18
tp2243
I1
s(g27
g14
g21
tp2244
I23
s(g17
g27
g6
tp2245
I2
s(g26
g31
g39
tp2246
I145
s(g27
g27
g35
tp2247
I7
s(g9
g27
g26
tp2248
I205
s(g25
g12
g18
tp2249
I2
s(g23
g30
g12
tp2250
I30
s(g39
g25
g39
tp2251
I48
s(g5
g6
g25
tp2252
I12
s(g31
g31
g27
tp2253
I197
s(g26
g6
g10
tp2254
I26
s(g23
g25
g25
tp2255
I1
s(g26
g50
g26
tp2256
I1774
s(g17
g6
g21
tp2257
I268
s(g12
g27
g4
tp2258
I2
s(g35
g35
g15
tp2259
I1
s(g39
g9
g6
tp2260
I29
s(g39
g171
g69
tp2261
I32
s(g106
g14
g18
tp2262
I1
s(g31
g21
g6
tp2263
I800
s(g15
g17
g15
tp2264
I45
s(g50
g39
g6
tp2265
I4
s(g23
g14
g31
tp2266
I1
s(g25
g21
g14
tp2267
I1
s(g69
g39
g18
tp2268
I44
s(g21
g25
g27
tp2269
I236
s(g106
g17
g39
tp2270
I23
s(g31
g39
g18
tp2271
I25
s(g27
g26
g15
tp2272
I129
s(g21
g55
g10
tp2273
I1
s(g14
g21
g6
tp2274
I451
s(g21
g18
g4
tp2275
I922
s(g69
g69
g8
tp2276
I1
s(g25
g17
g21
tp2277
I51
s(g9
g17
g15
tp2278
I14
s(g50
g21
g15
tp2279
I1
s(g4
g10
g18
tp2280
I60
s(g74
g39
g5
tp2281
I3
s(g9
g8
g21
tp2282
I301
s(g26
g69
g5
tp2283
I10
s(g6
g39
g31
tp2284
I50
s(g5
g25
g26
tp2285
I26
s(g5
g8
g39
tp2286
I271
s(g21
g6
g23
tp2287
I410
s(g27
g25
g17
tp2288
I7
s(g5
g23
g21
tp2289
I92
s(g26
g15
g25
tp2290
I260
s(g12
g26
g21
tp2291
I5
s(g31
g9
g5
tp2292
I3
s(g5
g31
g55
tp2293
I11
s(g9
g17
g8
tp2294
I51
s(g4
g5
g8
tp2295
I480
s(g5
g12
g15
tp2296
I5
s(g21
g17
g18
tp2297
I44
s(g27
g39
g6
tp2298
I639
s(g30
g8
g5
tp2299
I68
s(g14
g25
g18
tp2300
I2
s(g14
g5
g21
tp2301
I201
s(g14
g9
g5
tp2302
I1
s(g50
g8
g39
tp2303
I1
s(g50
g31
g14
tp2304
I1
s(g69
g17
g74
tp2305
I8
s(g55
g18
g4
tp2306
I1
s(g17
g18
g21
tp2307
I226
s(g23
g10
g18
tp2308
I2
s(g5
g4
g50
tp2309
I3
s(g23
g4
g12
tp2310
I1
s(g21
g31
g8
tp2311
I1
s(g31
g26
g15
tp2312
I92
s(g26
g31
g27
tp2313
I47
s(g21
g6
g6
tp2314
I283
s(g39
g23
g5
tp2315
I42
s(g6
g31
g9
tp2316
I2
s(g26
g8
g23
tp2317
I178
s(g17
g171
g69
tp2318
I1
s(g27
g39
g23
tp2319
I369
s(g39
g39
g23
tp2320
I9
s(g9
g17
g27
tp2321
I48
s(g31
g69
g5
tp2322
I3
s(g10
g21
g9
tp2323
I140
s(g50
g39
g21
tp2324
I342
s(g17
g8
g4
tp2325
I202
s(g35
g18
g14
tp2326
I9
s(g5
g17
g9
tp2327
I202
s(g6
g39
g50
tp2328
I32
s(g4
g4
g21
tp2329
I293
s(g25
g17
g25
tp2330
I11
s(g27
g26
g26
tp2331
I140
s(g14
g10
g26
tp2332
I78
s(g21
g5
g4
tp2333
I194
s(g31
g17
g8
tp2334
I83
s(g39
g25
g12
tp2335
I3
s(g5
g17
g8
tp2336
I42
s(g26
g26
g23
tp2337
I35
s(g69
g17
g8
tp2338
I90
s(g18
g25
g17
tp2339
I1
s(g14
g5
g8
tp2340
I519
s(g5
g17
g4
tp2341
I154
s(g69
g4
g23
tp2342
I1
s(g35
g31
g26
tp2343
I42
s(g31
g5
g50
tp2344
I26
s(g8
g15
g17
tp2345
I45
s(g25
g8
g39
tp2346
I323
s(g39
g17
g8
tp2347
I1326
s(g23
g8
g21
tp2348
I175
s(g21
g14
g27
tp2349
I638
s(g21
g23
g8
tp2350
I15
s(g23
g5
g17
tp2351
I307
s(g18
g12
g23
tp2352
I25
s(g39
g8
g31
tp2353
I589
s(g23
g27
g39
tp2354
I265
s(g26
g27
g74
tp2355
I1
s(g23
g17
g25
tp2356
I34
s(g12
g18
g5
tp2357
I1
s(g17
g17
g17
tp2358
I14
s(g15
g18
g17
tp2359
I1
s(g31
g39
g4
tp2360
I9
s(g15
g39
g4
tp2361
I211
s(g31
g18
g30
tp2362
I1
s(g18
g10
g8
tp2363
I121
s(g30
g26
g15
tp2364
I1
s(g18
g30
g5
tp2365
I4
s(g18
g17
g21
tp2366
I37
s(g15
g18
g4
tp2367
I23
s(g69
g5
g8
tp2368
I128
s(g21
g18
g69
tp2369
I16
s(g10
g5
g21
tp2370
I187
s(g39
g12
g39
tp2371
I6
s(g50
g5
g18
tp2372
I126
s(g27
g26
g6
tp2373
I495
s(g27
g30
g12
tp2374
I9
s(g31
g31
g18
tp2375
I3
s(g17
g18
g6
tp2376
I21
s(g25
g27
g26
tp2377
I1083
s(g31
g4
g50
tp2378
I1
s(g5
g9
g5
tp2379
I489
s(g18
g5
g171
tp2380
I4
s(g25
g39
g31
tp2381
I168
s(g26
g15
g5
tp2382
I519
s(g25
g4
g27
tp2383
I4
s(g5
g14
g26
tp2384
I265
s(g5
g69
g6
tp2385
I2
s(g23
g15
g39
tp2386
I1
s(g8
g8
g8
tp2387
I2
s(g14
g12
g21
tp2388
I6
s(g12
g8
g4
tp2389
I61
s(g5
g27
g12
tp2390
I38
s(g26
g171
g5
tp2391
I160
s(g35
g23
g26
tp2392
I1
s(g39
g18
g4
tp2393
I574
s(g8
g39
g9
tp2394
I81
s(g26
g4
g27
tp2395
I39
s(g17
g171
g10
tp2396
I2
s(g8
g5
g18
tp2397
I141
s(g4
g21
g69
tp2398
I126
s(g31
g8
g25
tp2399
I1
s(g14
g27
g17
tp2400
I58
s(g23
g6
g39
tp2401
I2
s(g25
g5
g4
tp2402
I97
s(g10
g5
g74
tp2403
I12
s(g30
g26
g25
tp2404
I1
s(g50
g21
g23
tp2405
I113
s(g18
g25
g26
tp2406
I6
s(g35
g21
g39
tp2407
I3
s(g23
g17
g69
tp2408
I8
s(g35
g10
g23
tp2409
I1
s(g23
g21
g14
tp2410
I75
s(g12
g5
g23
tp2411
I1
s(g15
g26
g39
tp2412
I78
s(g9
g26
g27
tp2413
I37
s(g27
g39
g31
tp2414
I25
s(g27
g26
g35
tp2415
I50
s(g25
g4
g5
tp2416
I10
s(g25
g21
g23
tp2417
I16
s(g12
g25
g8
tp2418
I1
s(g15
g17
g6
tp2419
I75
s(g23
g23
g17
tp2420
I52
s(g50
g6
g26
tp2421
I1
s(g25
g39
g15
tp2422
I10
s(g39
g6
g15
tp2423
I8
s(g9
g5
g39
tp2424
I2
s(g26
g35
g26
tp2425
I53
s(g69
g17
g17
tp2426
I1
s(g14
g31
g26
tp2427
I1
s(g6
g21
g9
tp2428
I145
s(g17
g39
g21
tp2429
I8
s(g10
g39
g26
tp2430
I61
s(g50
g39
g27
tp2431
I128
s(g18
g18
g27
tp2432
I32
s(g21
g5
g18
tp2433
I21
s(g10
g10
g18
tp2434
I1
s(g8
g17
g27
tp2435
I41
s(g17
g14
g26
tp2436
I32
s(g74
g74
g26
tp2437
I5
s(g5
g14
g27
tp2438
I4
s(g12
g5
g8
tp2439
I52
s(g12
g15
g14
tp2440
I24
s(g31
g27
g21
tp2441
I26
s(g21
g8
g30
tp2442
I10
s(g69
g39
g26
tp2443
I4
s(g39
g27
g35
tp2444
I1
s(g35
g21
g31
tp2445
I105
s(g26
g30
g9
tp2446
I2
s(g21
g39
g31
tp2447
I22
s(g55
g5
g14
tp2448
I15
s(g21
g171
g21
tp2449
I24
s(g39
g27
g5
tp2450
I103
s(g171
g4
g18
tp2451
I8
s(g26
g27
g14
tp2452
I136
s(g31
g26
g14
tp2453
I104
s(g9
g6
g18
tp2454
I13
s(g26
g23
g21
tp2455
I244
s(g10
g5
g31
tp2456
I1469
s(g26
g39
g69
tp2457
I2
s(g8
g31
g30
tp2458
I1
s(g27
g31
g21
tp2459
I97
s(g27
g25
g8
tp2460
I5
s(g39
g35
g31
tp2461
I100
s(g39
g5
g10
tp2462
I1
s(g27
g21
g18
tp2463
I338
s(g39
g27
g6
tp2464
I3
s(g25
g39
g50
tp2465
I78
s(g35
g30
g21
tp2466
I1
s(g9
g5
g50
tp2467
I114
s(g26
g15
g18
tp2468
I158
s(g18
g27
g39
tp2469
I145
s(g17
g21
g18
tp2470
I47
s(g27
g17
g9
tp2471
I30
s(g4
g8
g39
tp2472
I440
s(g17
g15
g8
tp2473
I1
s(g8
g4
g12
tp2474
I79
s(g39
g10
g21
tp2475
I5
s(g8
g26
g17
tp2476
I13
s(g6
g23
g12
tp2477
I85
s(g6
g39
g39
tp2478
I33
s(g25
g18
g39
tp2479
I40
s(g21
g5
g15
tp2480
I24
s(g9
g21
g23
tp2481
I132
s(g23
g21
g17
tp2482
I35
s(g35
g35
g12
tp2483
I4
s(g21
g39
g23
tp2484
I4
s(g6
g17
g17
tp2485
I1
s(g21
g27
g10
tp2486
I15
s(g69
g4
g21
tp2487
I21
s(g26
g4
g39
tp2488
I26
s(g8
g5
g8
tp2489
I115
s(g6
g4
g39
tp2490
I940
s(g23
g27
g26
tp2491
I308
s(g35
g6
g26
tp2492
I39
s(g23
g17
g27
tp2493
I221
s(g21
g27
g50
tp2494
I32
s(g30
g27
g12
tp2495
I97
s(g35
g6
g23
tp2496
I1
s(g23
g39
g6
tp2497
I1139
s(g6
g5
g25
tp2498
I47
s(g8
g35
g21
tp2499
I24
s(g9
g17
g12
tp2500
I20
s(g31
g8
g5
tp2501
I242
s(g5
g74
g21
tp2502
I48
s(g21
g23
g5
tp2503
I811
s(g4
g5
g171
tp2504
I18
s(g69
g69
g17
tp2505
I3
s(g10
g35
g5
tp2506
I12
s(g39
g14
g10
tp2507
I92
s(g23
g10
g6
tp2508
I86
s(g39
g17
g23
tp2509
I71
s(g15
g8
g26
tp2510
I1
s(g14
g5
g9
tp2511
I68
s(g17
g18
g17
tp2512
I77
s(g15
g26
g69
tp2513
I2
s(g6
g18
g31
tp2514
I1
s(g26
g27
g15
tp2515
I80
s(g5
g8
g14
tp2516
I53
s(g9
g26
g26
tp2517
I2
s(g69
g5
g31
tp2518
I16
s(g39
g25
g10
tp2519
I1
s(g5
g25
g12
tp2520
I47
s(g18
g21
g26
tp2521
I31
s(g6
g5
g15
tp2522
I141
s(g35
g18
g21
tp2523
I2
s(g5
g14
g39
tp2524
I98
s(g30
g18
g39
tp2525
I5
s(g27
g10
g5
tp2526
I3
s(g21
g14
g18
tp2527
I86
s(g5
g6
g10
tp2528
I6
s(g39
g8
g35
tp2529
I82
s(g21
g6
g39
tp2530
I42
s(g8
g26
g6
tp2531
I416
s(g6
g18
g6
tp2532
I3
s(g15
g18
g30
tp2533
I5
s(g69
g39
g21
tp2534
I3
s(g6
g10
g5
tp2535
I40
s(g8
g23
g17
tp2536
I47
s(g14
g27
g12
tp2537
I94
s(g15
g14
g21
tp2538
I50
s(g15
g39
g30
tp2539
I39
s(g26
g25
g26
tp2540
I10
s(g18
g30
g26
tp2541
I171
s(g23
g30
g17
tp2542
I2
s(g39
g15
g25
tp2543
I78
s(g31
g4
g26
tp2544
I1
s(g35
g26
g69
tp2545
I2
s(g21
g26
g18
tp2546
I463
s(g5
g26
g8
tp2547
I17
s(g25
g39
g27
tp2548
I72
s(g31
g39
g21
tp2549
I88
s(g15
g5
g6
tp2550
I974
s(g39
g23
g17
tp2551
I27
s(g10
g12
g8
tp2552
I2
s(g27
g5
g171
tp2553
I20
s(g4
g8
g27
tp2554
I1
s(g6
g35
g8
tp2555
I1
s(g27
g21
g17
tp2556
I7
s(g23
g10
g23
tp2557
I5
s(g31
g12
g18
tp2558
I2
s(g17
g26
g26
tp2559
I128
s(g25
g5
g9
tp2560
I33
s(g27
g9
g5
tp2561
I2
s(g27
g12
g5
tp2562
I4
s(g8
g6
g21
tp2563
I223
s(g23
g9
g39
tp2564
I79
s(g4
g15
g5
tp2565
I60
s(g27
g69
g39
tp2566
I194
s(g26
g4
g6
tp2567
I14
s(g9
g39
g39
tp2568
I229
s(g6
g17
g27
tp2569
I3
s(g8
g8
g21
tp2570
I469
s(g6
g5
g8
tp2571
I371
s(g27
g5
g5
tp2572
I1
s(g10
g12
g9
tp2573
I3
s(g5
g50
g26
tp2574
I1333
s(g8
g39
g14
tp2575
I284
s(g39
g18
g23
tp2576
I19
s(g14
g27
g14
tp2577
I2
s(g15
g39
g25
tp2578
I12
s(g27
g17
g26
tp2579
I111
s(g6
g10
g39
tp2580
I11
s(g30
g9
g8
tp2581
I5
s(g30
g17
g8
tp2582
I6
s(g23
g14
g17
tp2583
I3
s(g39
g8
g14
tp2584
I44
s(g27
g39
g35
tp2585
I702
s(g6
g21
g14
tp2586
I11
s(g5
g4
g21
tp2587
I1792
s(g8
g21
g31
tp2588
I456
s(g26
g30
g26
tp2589
I28
s(g4
g26
g18
tp2590
I338
s(g6
g74
g21
tp2591
I4
s(g55
g5
g23
tp2592
I80
s(g31
g21
g31
tp2593
I481
s(g18
g27
g26
tp2594
I340
s(g39
g10
g26
tp2595
I6
s(g8
g4
g9
tp2596
I2
s(g14
g10
g12
tp2597
I102
s(g21
g14
g5
tp2598
I20
s(g6
g6
g18
tp2599
I18
s(g26
g8
g30
tp2600
I21
s(g69
g21
g18
tp2601
I38
s(g14
g26
g14
tp2602
I27
s(g15
g5
g74
tp2603
I20
s(g39
g23
g12
tp2604
I1
s(g5
g23
g23
tp2605
I176
s(g15
g27
g18
tp2606
I1
s(g69
g157
tp2607
I1200
s(g10
g39
g23
tp2608
I86
s(g12
g6
g15
tp2609
I3
s(g23
g23
g21
tp2610
I30
s(g5
g21
g31
tp2611
I2008
s(g17
g6
g4
tp2612
I349
s(g17
g25
g55
tp2613
I39
s(g17
g27
g15
tp2614
I1
s(g4
g8
g21
tp2615
I659
s(g35
g26
g26
tp2616
I267
s(g21
g8
g15
tp2617
I25
s(g8
g12
g69
tp2618
I89
s(g21
g31
g23
tp2619
I2
s(g18
g69
g171
tp2620
I1
s(g8
g27
g5
tp2621
I15
s(g4
g4
g8
tp2622
I20
s(g26
g5
g30
tp2623
I274
s(g26
g30
g27
tp2624
I6
s(g21
g4
g25
tp2625
I1
s(g39
g8
g17
tp2626
I17
s(g6
g9
g39
tp2627
I15
s(g39
g39
g14
tp2628
I86
s(g30
g4
g8
tp2629
I2
s(g69
g39
g27
tp2630
I142
s(g69
g21
g23
tp2631
I254
s(g74
g21
g27
tp2632
I10
s(g39
g10
g39
tp2633
I24
s(g18
g17
g18
tp2634
I73
s(g95
g17
tp2635
I1608
s(g26
g26
g9
tp2636
I1
s(g8
g23
g18
tp2637
I3
s(g21
g27
g69
tp2638
I3
s(g6
g39
g26
tp2639
I1
s(g10
g4
g5
tp2640
I3
s(g4
g17
g39
tp2641
I10
s(g10
g39
g6
tp2642
I142
s(g8
g30
g5
tp2643
I7
s(g26
g23
g17
tp2644
I66
s(g14
g21
g30
tp2645
I3
s(g4
g50
g5
tp2646
I3
s(g35
g27
g18
tp2647
I24
s(g171
g14
g8
tp2648
I82
s(g69
g4
g14
tp2649
I4
s(g15
g15
g21
tp2650
I67
s(g10
g25
g17
tp2651
I11
s(g5
g27
g4
tp2652
I139
s(g26
g8
g39
tp2653
I128
s(g8
g26
g18
tp2654
I1141
s(g8
g39
g25
tp2655
I192
s(g25
g39
g30
tp2656
I17
s(g27
g4
g18
tp2657
I39
s(g171
g21
g26
tp2658
I17
s(g8
g55
g5
tp2659
I1
s(g14
g4
g21
tp2660
I113
s(g18
g26
g5
tp2661
I199
s(g14
g18
g10
tp2662
I2
s(g15
g4
g10
tp2663
I3
s(g5
g30
g69
tp2664
I14
s(g14
g23
g15
tp2665
I1
s(g25
g17
g6
tp2666
I16
s(g21
g18
g25
tp2667
I59
s(g17
g8
g6
tp2668
I465
s(g6
g25
g8
tp2669
I4
s(g18
g18
g6
tp2670
I6
s(g74
g26
g6
tp2671
I40
s(g5
g9
g50
tp2672
I1
s(g8
g21
g5
tp2673
I230
s(g35
g39
g39
tp2674
I95
s(g74
g21
g26
tp2675
I6
s(g10
g5
g50
tp2676
I995
s(g69
g4
g39
tp2677
I2
s(g23
g30
g25
tp2678
I1
s(g15
g69
g26
tp2679
I1
s(g26
g31
g4
tp2680
I2
s(g5
g6
g6
tp2681
I182
s(g6
g23
g5
tp2682
I13
s(g27
g31
g6
tp2683
I2
s(g10
g17
g18
tp2684
I56
s(g69
g27
g26
tp2685
I142
s(g27
g15
g21
tp2686
I8
s(g6
g39
g27
tp2687
I10
s(g5
g18
g4
tp2688
I1030
s(g171
g171
g21
tp2689
I1
s(g31
g21
g26
tp2690
I212
s(g23
g30
g27
tp2691
I129
s(g39
g8
g12
tp2692
I278
s(g23
g17
g17
tp2693
I10
s(g8
g39
g30
tp2694
I61
s(g23
g5
g21
tp2695
I4
s(g35
g18
g31
tp2696
I1
s(g8
g10
g12
tp2697
I23
s(g17
g8
g12
tp2698
I71
s(g27
g25
g5
tp2699
I1
s(g171
g27
g26
tp2700
I2
s(g55
g26
g8
tp2701
I21
s(g8
g9
g5
tp2702
I63
s(g69
g26
g21
tp2703
I133
s(g26
g17
g18
tp2704
I5
s(g14
g25
g39
tp2705
I11
s(g9
g30
g21
tp2706
I2
s(g69
g5
g50
tp2707
I28
s(g26
g5
g10
tp2708
I36
s(g5
g18
g10
tp2709
I256
s(g5
g4
g25
tp2710
I5
s(g15
g5
g27
tp2711
I519
s(g21
g5
g55
tp2712
I1
s(g26
g15
g15
tp2713
I3
s(g5
g26
g31
tp2714
I22
s(g8
g69
g5
tp2715
I17
s(g18
g12
g6
tp2716
I32
s(g17
g6
g15
tp2717
I2
s(g95
g31
tp2718
I6688
s(g39
g17
g4
tp2719
I2022
s(g8
g12
g15
tp2720
I2
s(g12
g27
g14
tp2721
I1
s(g12
g74
g5
tp2722
I2
s(g5
g21
g6
tp2723
I1297
s(g15
g5
g15
tp2724
I7
s(g39
g4
g25
tp2725
I6
s(g15
g26
g9
tp2726
I5
s(g9
g10
g21
tp2727
I30
s(g21
g9
g26
tp2728
I33
s(g27
g15
g27
tp2729
I6
s(g21
g39
g50
tp2730
I1
s(g171
g69
g39
tp2731
I32
s(g8
g26
g5
tp2732
I1767
s(g26
g17
g27
tp2733
I2
s(g10
g14
g21
tp2734
I1
s(g6
g4
g12
tp2735
I64
s(g23
g23
g31
tp2736
I1
s(g6
g8
g25
tp2737
I2
s(g6
g15
g5
tp2738
I4
s(g14
g69
g17
tp2739
I1
s(g18
g21
g10
tp2740
I1
s(g31
g5
g17
tp2741
I20
s(g39
g30
g27
tp2742
I1
s(g30
g69
g5
tp2743
I14
s(g27
g39
g17
tp2744
I270
s(g26
g55
g5
tp2745
I1
s(g8
g31
g5
tp2746
I36
s(g21
g6
g26
tp2747
I1241
s(g18
g26
g21
tp2748
I43
s(g25
g14
g5
tp2749
I1
s(g171
g21
g18
tp2750
I24
s(g35
g21
g30
tp2751
I31
s(g10
g21
g21
tp2752
I1
s(g9
g17
g26
tp2753
I110
s(g5
g17
g74
tp2754
I1
s(g4
g6
g21
tp2755
I11
s(g171
g5
g15
tp2756
I78
s(g21
g74
g5
tp2757
I150
s(g10
g21
g74
tp2758
I6
s(g14
g39
g15
tp2759
I29
s(g6
g9
g26
tp2760
I556
s(g5
g35
g5
tp2761
I318
s(g8
g23
g5
tp2762
I31
s(g39
g27
g69
tp2763
I22
s(g5
g8
g30
tp2764
I344
s(g4
g6
g5
tp2765
I15
s(g4
g21
g74
tp2766
I14
s(g23
g30
g5
tp2767
I13
s(g106
g157
tp2768
I6
s(g21
g4
g18
tp2769
I562
s(g5
g31
g31
tp2770
I221
s(g95
g9
tp2771
I5192
s(g35
g27
g21
tp2772
I32
s(g25
g25
g17
tp2773
I1
s(g31
g26
g39
tp2774
I70
s(g5
g27
g18
tp2775
I241
s(g18
g5
g31
tp2776
I22
s(g8
g5
g6
tp2777
I695
s(g31
g21
g39
tp2778
I101
s(g26
g8
g26
tp2779
I3128
s(g5
g31
g9
tp2780
I6
s(g5
g35
g27
tp2781
I48
s(g5
g25
g10
tp2782
I1
s(g4
g17
g15
tp2783
I35
s(g50
g39
g30
tp2784
I3
s(g27
g8
g17
tp2785
I1
s(g25
g17
g18
tp2786
I112
s(g30
g12
g5
tp2787
I1
s(g171
g17
g18
tp2788
I1
s(g9
g21
g9
tp2789
I10
s(g5
g6
g14
tp2790
I1
s(g23
g30
g69
tp2791
I1
s(g39
g39
g50
tp2792
I10
s(g9
g5
g12
tp2793
I4
s(g35
g31
g27
tp2794
I3
s(g12
g14
g4
tp2795
I9
s(g14
g6
g39
tp2796
I19
s(g39
g8
g27
tp2797
I114
s(g35
g10
g5
tp2798
I1034
s(g21
g15
g23
tp2799
I1
s(g21
g5
g21
tp2800
I1
s(g15
g14
g18
tp2801
I53
s(g8
g21
g39
tp2802
I220
s(g21
g171
g26
tp2803
I36
s(g69
g4
g26
tp2804
I415
s(g31
g9
g30
tp2805
I2
s(g15
g5
g8
tp2806
I347
s(g31
g31
g39
tp2807
I1
s(g21
g23
g14
tp2808
I1
s(g69
g8
g25
tp2809
I1
s(g23
g14
g23
tp2810
I2
s(g39
g8
g25
tp2811
I29
s(g5
g69
g26
tp2812
I70
s(g14
g4
g4
tp2813
I2
s(g6
g69
g39
tp2814
I65
s(g21
g50
g5
tp2815
I76
s(g69
g26
g31
tp2816
I47
s(g35
g26
g21
tp2817
I32
s(g31
g39
g8
tp2818
I396
s(g18
g23
g5
tp2819
I156
s(g50
g39
g31
tp2820
I58
s(g6
g39
g5
tp2821
I1
s(g26
g14
g14
tp2822
I90
s(g39
g21
g8
tp2823
I3
s(g69
g69
g21
tp2824
I251
s(g26
g39
g14
tp2825
I233
s(g31
g50
g5
tp2826
I41
s(g6
g31
g12
tp2827
I62
s(g17
g8
g27
tp2828
I47
s(g50
g21
g27
tp2829
I100
s(g18
g25
g18
tp2830
I1
s(g5
g9
g14
tp2831
I1
s(g69
g5
g4
tp2832
I114
s(g12
g26
g10
tp2833
I17
s(g26
g27
g5
tp2834
I206
s(g6
g14
g39
tp2835
I2
s(g31
g31
g31
tp2836
I54
s(g69
g5
g17
tp2837
I15
s(g39
g26
g18
tp2838
I231
s(g18
g12
g14
tp2839
I1
s(g5
g15
g5
tp2840
I96
s(g35
g5
g8
tp2841
I653
s(g14
g12
g8
tp2842
I23
s(g14
g10
g39
tp2843
I141
s(g14
g17
g69
tp2844
I24
s(g17
g10
g21
tp2845
I1
s(g17
g69
g69
tp2846
I173
s(g171
g23
g10
tp2847
I13
s(g12
g31
g26
tp2848
I4
s(g6
g39
g35
tp2849
I949
s(g12
g6
g26
tp2850
I5
s(g26
g74
g12
tp2851
I1
s(g30
g5
g9
tp2852
I12
s(g6
g26
g17
tp2853
I24
s(g14
g17
g26
tp2854
I12
s(g55
g21
g5
tp2855
I1
s(g25
g39
g171
tp2856
I37
s(g12
g31
g5
tp2857
I11
s(g5
g31
g5
tp2858
I83
s(g10
g18
g39
tp2859
I5
s(g39
g35
g21
tp2860
I149
s(g23
g39
g18
tp2861
I59
s(g6
g8
g5
tp2862
I4
s(g50
g21
g26
tp2863
I92
s(g18
g5
g18
tp2864
I5
s(g171
g17
g8
tp2865
I3
s(g31
g25
g5
tp2866
I4
s(g26
g26
g31
tp2867
I281
s(g17
g25
g69
tp2868
I2
s(g27
g27
g10
tp2869
I18
s(g50
g23
g8
tp2870
I1
s(g21
g6
g30
tp2871
I632
s(g18
g26
g18
tp2872
I343
s(g9
g25
g21
tp2873
I1
s(g26
g9
g27
tp2874
I8
s(g21
g31
g12
tp2875
I3
s(g95
g55
tp2876
I1501
s(g69
g17
g18
tp2877
I56
s(g27
g26
g31
tp2878
I984
s(g23
g12
g25
tp2879
I1
s(g50
g25
g21
tp2880
I3
s(g39
g8
g23
tp2881
I91
s(g6
g26
g10
tp2882
I1
s(g15
g18
g27
tp2883
I3
s(g5
g35
g30
tp2884
I41
s(g4
g18
g27
tp2885
I1
s(g15
g17
g27
tp2886
I102
s(g12
g6
g6
tp2887
I5
s(g23
g5
g4
tp2888
I382
s(g21
g25
g17
tp2889
I73
s(g4
g39
g14
tp2890
I275
s(g23
g21
g23
tp2891
I3
s(g39
g27
g50
tp2892
I55
s(g26
g12
g6
tp2893
I3
s(g6
g21
g5
tp2894
I74
s(g171
g10
g21
tp2895
I8
s(g10
g35
g21
tp2896
I2
s(g5
g8
g31
tp2897
I1346
s(g26
g8
g21
tp2898
I809
s(g30
g26
g4
tp2899
I125
s(g18
g30
g21
tp2900
I140
s(g21
g6
g50
tp2901
I78
s(g25
g18
g27
tp2902
I1
s(g39
g4
g12
tp2903
I3
s(g15
g39
g17
tp2904
I308
s(g10
g69
g17
tp2905
I18
s(g18
g12
g8
tp2906
I6
s(g26
g4
g25
tp2907
I3
s(g55
g17
g14
tp2908
I2
s(g10
g21
g39
tp2909
I18
s(g31
g31
g8
tp2910
I21
s(g39
g6
g4
tp2911
I605
s(g9
g31
g39
tp2912
I2
s(g27
g5
g10
tp2913
I1
s(g15
g25
g5
tp2914
I19
s(g14
g4
g18
tp2915
I15
s(g5
g5
g14
tp2916
I2
s(g10
g26
g18
tp2917
I552
s(g35
g5
g18
tp2918
I2978
s(g17
g5
g25
tp2919
I6
s(g14
g6
g26
tp2920
I13
s(g6
g31
g35
tp2921
I13
s(g26
g26
g30
tp2922
I135
s(g25
g39
g23
tp2923
I3
s(g15
g4
g39
tp2924
I2
s(g31
g12
g26
tp2925
I4
s(g14
g5
g74
tp2926
I1
s(g39
g35
g55
tp2927
I5
s(g15
g21
g5
tp2928
I14
s(g26
g27
g31
tp2929
I151
s(g171
g5
g6
tp2930
I7
s(g5
g39
g4
tp2931
I2
s(g6
g6
g39
tp2932
I56
s(g69
g23
g5
tp2933
I1
s(g27
g27
g26
tp2934
I750
s(g12
g25
g39
tp2935
I34
s(g17
g14
g39
tp2936
I62
s(g39
g17
g26
tp2937
I13
s(g12
g39
g31
tp2938
I1
s(g25
g31
g21
tp2939
I2
s(g6
g31
g10
tp2940
I5
s(g26
g15
g6
tp2941
I17
s(g25
g5
g17
tp2942
I4
s(g30
g35
g26
tp2943
I5
s(g17
g50
g8
tp2944
I1
s(g8
g39
g69
tp2945
I229
s(g6
g18
g30
tp2946
I3
s(g23
g39
g14
tp2947
I126
s(g23
g30
g6
tp2948
I14
s(g25
g25
g27
tp2949
I48
s(g23
g12
g9
tp2950
I1
s(g18
g6
g21
tp2951
I23
s(g5
g31
g25
tp2952
I2
s(g31
g18
g23
tp2953
I9
s(g6
g25
g12
tp2954
I2
s(g39
g12
g27
tp2955
I35
s(g21
g4
g6
tp2956
I14
s(g14
g10
g8
tp2957
I17
s(g15
g5
g23
tp2958
I161
s(g39
g50
g26
tp2959
I1192
s(g17
g8
g25
tp2960
I16
s(g21
g15
g8
tp2961
I3
s(g27
g26
g50
tp2962
I189
s(g15
g12
g12
tp2963
I1
s(g17
g15
g39
tp2964
I13
s(g4
g17
g27
tp2965
I7
s(g31
g4
g6
tp2966
I1
s(g23
g26
g4
tp2967
I16
s(g27
g17
g171
tp2968
I5
s(g74
g5
g74
tp2969
I1
s(g15
g17
g14
tp2970
I2
s(g4
g25
g23
tp2971
I1
s(g55
g26
g26
tp2972
I5
s(g39
g9
g15
tp2973
I1
s(g15
g39
g12
tp2974
I1
s(g12
g14
g27
tp2975
I2
s(g4
g12
g8
tp2976
I3
s(g35
g10
g21
tp2977
I959
s(g30
g25
g26
tp2978
I1
s(g74
g27
g26
tp2979
I26
s(g27
g69
g26
tp2980
I5
s(g15
g27
g31
tp2981
I1
s(g6
g8
g17
tp2982
I1
s(g17
g6
g106
tp2983
I1
s(g18
g5
g15
tp2984
I155
s(g6
g15
g39
tp2985
I2
s(g21
g15
g26
tp2986
I649
s(g17
g69
g27
tp2987
I1
s(g69
g21
g171
tp2988
I35
s(g21
g69
g27
tp2989
I21
s(g6
g27
g39
tp2990
I20
s(g30
g17
g27
tp2991
I5
s(g17
g50
g39
tp2992
I1
s(g25
g25
g23
tp2993
I5
s(g10
g35
g39
tp2994
I8
s(g18
g10
g39
tp2995
I897
s(g18
g26
g106
tp2996
I17
s(g39
g26
g12
tp2997
I22
s(g6
g4
g26
tp2998
I803
s(g27
g31
g10
tp2999
I3
s(g17
g69
g4
tp3000
I3
s(g12
g26
g6
tp3001
I1
s(g6
g31
g39
tp3002
I244
s(g21
g25
g6
tp3003
I3
s(g23
g26
g23
tp3004
I1
s(g9
g12
g15
tp3005
I2
s(g30
g69
g17
tp3006
I4
s(g15
g157
tp3007
I4036
s(g18
g10
g10
tp3008
I2
s(g50
g26
g9
tp3009
I9
s(g10
g26
g8
tp3010
I4908
s(g35
g35
g21
tp3011
I1
s(g25
g39
g17
tp3012
I618
s(g4
g27
g21
tp3013
I69
s(g9
g5
g35
tp3014
I2
s(g26
g27
g8
tp3015
I3
s(g12
g27
g39
tp3016
I15
s(g27
g17
g8
tp3017
I44
s(g10
g39
g15
tp3018
I147
s(g27
g21
g14
tp3019
I119
s(g74
g17
g23
tp3020
I1
s(g10
g31
g5
tp3021
I18
s(g31
g17
g39
tp3022
I1
s(g15
g5
g12
tp3023
I210
s(g26
g18
g17
tp3024
I66
s(g27
g17
g23
tp3025
I82
s(g9
g10
g26
tp3026
I80
s(g5
g14
g4
tp3027
I100
s(g15
g26
g8
tp3028
I423
s(g18
g21
g39
tp3029
I392
s(g4
g9
g5
tp3030
I2
s(g6
g21
g74
tp3031
I53
s(g30
g21
g8
tp3032
I6
s(g26
g25
g8
tp3033
I75
s(g8
g18
g39
tp3034
I105
s(g18
g18
g12
tp3035
I10
s(g74
g18
g23
tp3036
I1
s(g10
g17
g31
tp3037
I176
s(g171
g106
g17
tp3038
I3
s(g5
g23
g10
tp3039
I516
s(g9
g26
g10
tp3040
I10
s(g27
g15
g5
tp3041
I5
s(g27
g10
g26
tp3042
I9
s(g39
g14
g21
tp3043
I84
s(g55
g39
g27
tp3044
I12
s(g10
g4
g27
tp3045
I49
s(g14
g35
g26
tp3046
I1
s(g12
g69
g17
tp3047
I3
s(g69
g26
g14
tp3048
I2
s(g5
g39
g18
tp3049
I7
s(g14
g14
g15
tp3050
I4
s(g74
g17
g6
tp3051
I4
s(g4
g17
g69
tp3052
I51
s(g6
g4
g10
tp3053
I108
s(g6
g4
g23
tp3054
I1
s(g39
g39
g74
tp3055
I5
s(g18
g35
g5
tp3056
I54
s(g26
g4
g4
tp3057
I447
s(g27
g5
g6
tp3058
I438
s(g17
g6
g23
tp3059
I253
s(g8
g8
g39
tp3060
I213
s(g69
g17
g31
tp3061
I17
s(g17
g18
g14
tp3062
I41
s(g5
g23
g5
tp3063
I35
s(g31
g21
g10
tp3064
I1
s(g8
g6
g27
tp3065
I1
s(g39
g31
g30
tp3066
I58
s(g5
g23
g4
tp3067
I495
s(g27
g12
g4
tp3068
I115
s(g17
g69
g21
tp3069
I2
s(g4
g17
g8
tp3070
I998
s(g12
g25
g26
tp3071
I37
s(g25
g26
g17
tp3072
I4
s(g26
g26
g74
tp3073
I47
s(g12
g12
g12
tp3074
I18
s(g12
g39
g6
tp3075
I133
s(g31
g5
g6
tp3076
I155
s(g31
g35
g21
tp3077
I30
s(g35
g10
g4
tp3078
I1
s(g39
g5
g27
tp3079
I20
s(g26
g8
g50
tp3080
I241
s(g6
g39
g23
tp3081
I74
s(g8
g35
g5
tp3082
I106
s(g8
g26
g15
tp3083
I415
s(g17
g4
g17
tp3084
I27
s(g26
g31
g18
tp3085
I63
s(g17
g25
g26
tp3086
I49
s(g5
g6
g9
tp3087
I647
s(g15
g14
g10
tp3088
I31
s(g15
g39
g27
tp3089
I35
s(g25
g26
g4
tp3090
I290
s(g69
g21
g69
tp3091
I63
s(g27
g5
g12
tp3092
I219
s(g21
g9
g21
tp3093
I94
s(g5
g50
g8
tp3094
I1
s(g26
g12
g18
tp3095
I73
s(g21
g8
g18
tp3096
I327
s(g8
g50
g5
tp3097
I47
s(g31
g21
g18
tp3098
I474
s(g69
g31
g5
tp3099
I2
s(g9
g26
g15
tp3100
I16
s(g25
g26
g23
tp3101
I276
s(g21
g26
g26
tp3102
I2
s(g31
g5
g12
tp3103
I301
s(g27
g5
g18
tp3104
I630
s(g26
g9
g12
tp3105
I7
s(g30
g5
g6
tp3106
I27
s(g30
g5
g4
tp3107
I4
s(g15
g21
g4
tp3108
I211
s(g17
g27
g4
tp3109
I217
s(g4
g35
g26
tp3110
I203
s(g18
g5
g35
tp3111
I146
s(g17
g23
g4
tp3112
I145
s(g17
g15
g5
tp3113
I152
s(g5
g6
g18
tp3114
I365
s(g35
g6
g21
tp3115
I22
s(g8
g26
g69
tp3116
I204
s(g5
g39
g8
tp3117
I15
s(g18
g10
g26
tp3118
I2059
s(g6
g12
g4
tp3119
I126
s(g10
g17
g171
tp3120
I1
s(g18
g17
g69
tp3121
I35
s(g31
g39
g26
tp3122
I143
s(g8
g4
g5
tp3123
I204
s(g69
g26
g18
tp3124
I222
s(g23
g17
g6
tp3125
I4
s(g27
g39
g21
tp3126
I9
s(g27
g17
g31
tp3127
I128
s(g25
g5
g27
tp3128
I118
s(g95
g14
tp3129
I7250
s(g39
g15
g17
tp3130
I10
s(g6
g23
g8
tp3131
I54
s(g55
g39
g50
tp3132
I1
s(g10
g157
tp3133
I5723
s(g5
g21
g74
tp3134
I1
s(g50
g10
g69
tp3135
I1
s(g8
g18
g5
tp3136
I30
s(g18
g21
g4
tp3137
I309
s(g9
g14
g26
tp3138
I1
s(g5
g25
g25
tp3139
I146
s(g27
g27
g15
tp3140
I1
s(g10
g4
g30
tp3141
I1
s(g31
g17
g26
tp3142
I39
s(g26
g4
g23
tp3143
I70
s(g21
g23
g21
tp3144
I192
s(g26
g55
g39
tp3145
I9
s(g4
g25
g26
tp3146
I9
s(g50
g21
g4
tp3147
I100
s(g21
g9
g6
tp3148
I205
s(g8
g8
g5
tp3149
I46
s(g9
g8
g5
tp3150
I502
s(g12
g15
g17
tp3151
I3
s(g21
g4
g5
tp3152
I231
s(g27
g31
g5
tp3153
I4
s(g9
g18
g31
tp3154
I1
s(g14
g21
g18
tp3155
I25
s(g15
g39
g39
tp3156
I64
s(g9
g26
g8
tp3157
I421
s(g31
g9
g15
tp3158
I10
s(g26
g31
g10
tp3159
I1
s(g31
g26
g12
tp3160
I1
s(g5
g6
g69
tp3161
I2
s(g17
g31
g12
tp3162
I54
s(g21
g8
g27
tp3163
I170
s(g35
g25
g39
tp3164
I2
s(g39
g4
g9
tp3165
I6
s(g6
g17
g50
tp3166
I1
s(g15
g39
g74
tp3167
I2
s(g31
g18
g39
tp3168
I146
s(g39
g30
g5
tp3169
I64
s(g12
g27
g171
tp3170
I4
s(g4
g50
g25
tp3171
I1
s(g21
g9
g17
tp3172
I55
s(g39
g12
g21
tp3173
I14
s(g17
g15
g6
tp3174
I4
s(g17
g5
g4
tp3175
I38
s(g31
g21
g8
tp3176
I172
s(g31
g9
g17
tp3177
I2
s(g31
g31
g12
tp3178
I23
s(g26
g5
g6
tp3179
I441
s(g39
g5
g18
tp3180
I47
s(g8
g6
g4
tp3181
I11
s(g14
g8
g26
tp3182
I661
s(g27
g15
g6
tp3183
I1
s(g23
g26
g12
tp3184
I4
s(g50
g5
g17
tp3185
I15
s(g4
g5
g18
tp3186
I90
s(g69
g17
g6
tp3187
I98
s(g14
g17
g6
tp3188
I78
s(g69
g39
g9
tp3189
I9
s(g5
g23
g30
tp3190
I1101
s(g50
g31
g18
tp3191
I1
s(g35
g26
g25
tp3192
I17
s(g25
g17
g15
tp3193
I10
s(g4
g18
g23
tp3194
I5
s(g6
g8
g12
tp3195
I58
s(g18
g50
g8
tp3196
I1
s(g5
g21
g27
tp3197
I258
s(g17
g12
g18
tp3198
I7
s(g50
g4
g50
tp3199
I1
s(g8
g17
g25
tp3200
I53
s(g8
g39
g5
tp3201
I270
s(g12
g74
g26
tp3202
I7
s(g4
g8
g5
tp3203
I808
s(g69
g12
g39
tp3204
I1
s(g31
g26
g8
tp3205
I1048
s(g39
g10
g18
tp3206
I1
s(g27
g5
g14
tp3207
I70
s(g26
g6
g69
tp3208
I3
s(g26
g8
g27
tp3209
I82
s(g6
g4
g35
tp3210
I4
s(g12
g26
g26
tp3211
I5
s(g27
g31
g69
tp3212
I3
s(g5
g55
g39
tp3213
I24
s(g171
g39
g6
tp3214
I3
s(g50
g27
g21
tp3215
I1
s(g26
g5
g23
tp3216
I361
s(g21
g30
g6
tp3217
I3
s(g6
g26
g27
tp3218
I99
s(g26
g31
g17
tp3219
I83
s(g39
g25
g4
tp3220
I9
s(g14
g21
g5
tp3221
I2
s(g26
g21
g74
tp3222
I43
s(g39
g69
g8
tp3223
I1
s(g5
g8
g17
tp3224
I2
s(g74
g21
g31
tp3225
I1
s(g55
g26
g10
tp3226
I1
s(g31
g12
g21
tp3227
I25
s(g4
g4
g14
tp3228
I13
s(g4
g17
g9
tp3229
I11
s(g10
g39
g50
tp3230
I27
s(g8
g30
g21
tp3231
I57
s(g6
g39
g8
tp3232
I206
s(g171
g5
g18
tp3233
I8
s(g5
g4
g74
tp3234
I2
s(g26
g9
g6
tp3235
I12
s(g8
g15
g5
tp3236
I288
s(g6
g50
g5
tp3237
I6
s(g5
g15
g21
tp3238
I201
s(g10
g5
g26
tp3239
I17
s(g23
g5
g5
tp3240
I1
s(g4
g26
g69
tp3241
I15
s(g5
g27
g27
tp3242
I2661
s(g30
g35
g21
tp3243
I13
s(g17
g6
g26
tp3244
I49
s(g27
g17
g6
tp3245
I95
s(g5
g4
g5
tp3246
I51
s(g69
g35
g5
tp3247
I12
s(g5
g25
g55
tp3248
I11
s(g30
g6
g5
tp3249
I10
s(g17
g31
g14
tp3250
I2
s(g18
g6
g26
tp3251
I62
s(g27
g6
g26
tp3252
I9
s(g18
g21
g18
tp3253
I151
s(g25
g21
g27
tp3254
I129
s(g25
g17
g69
tp3255
I3
s(g27
g26
g5
tp3256
I685
s(g50
g26
g171
tp3257
I1
s(g10
g8
g26
tp3258
I245
s(g31
g39
g39
tp3259
I292
s(g30
g5
g12
tp3260
I40
s(g8
g17
g9
tp3261
I54
s(g21
g27
g4
tp3262
I73
s(g26
g39
g35
tp3263
I3
s(g171
g21
g6
tp3264
I17
s(g15
g50
g25
tp3265
I1
s(g31
g39
g14
tp3266
I3
s(g4
g31
g39
tp3267
I1
s(g17
g4
g27
tp3268
I18
s(g26
g35
g31
tp3269
I6
s(g23
g23
g5
tp3270
I24
s(g12
g14
g10
tp3271
I44
s(g50
g17
g27
tp3272
I3
s(g8
g23
g39
tp3273
I19
s(g26
g50
g12
tp3274
I2
s(g27
g69
g9
tp3275
I1
s(g12
g39
g18
tp3276
I11
s(g21
g8
g17
tp3277
I2
s(g14
g17
g4
tp3278
I279
s(g74
g39
g6
tp3279
I34
s(g5
g27
g26
tp3280
I206
s(g17
g6
g6
tp3281
I144
s(g6
g12
g5
tp3282
I2
s(g26
g17
g15
tp3283
I29
s(g8
g6
g69
tp3284
I4
s(g10
g26
g6
tp3285
I1173
s(g26
g39
g8
tp3286
I197
s(g6
g25
g17
tp3287
I10
s(g17
g27
g10
tp3288
I1
s(g21
g25
g8
tp3289
I74
s(g27
g26
g55
tp3290
I1
s(g35
g21
g50
tp3291
I8
s(g4
g21
g55
tp3292
I1
s(g31
g69
g17
tp3293
I27
s(g5
g9
g26
tp3294
I720
s(g69
g21
g5
tp3295
I7
s(g23
g5
g69
tp3296
I141
s(g17
g10
g26
tp3297
I1
s(g8
g25
g39
tp3298
I25
s(g23
g6
g26
tp3299
I1
s(g39
g21
g23
tp3300
I332
s(g14
g39
g27
tp3301
I118
s(g31
g8
g17
tp3302
I44
s(g10
g5
g69
tp3303
I20
s(g18
g39
g25
tp3304
I25
s(g18
g14
g17
tp3305
I39
s(g5
g21
g50
tp3306
I1
s(g10
g15
g21
tp3307
I9
s(g14
g4
g5
tp3308
I49
s(g14
g8
g25
tp3309
I1
s(g14
g15
g26
tp3310
I42
s(g10
g21
g12
tp3311
I1
s(g26
g69
g18
tp3312
I2
s(g74
g26
g8
tp3313
I15
s(g31
g26
g55
tp3314
I2
s(g10
g14
g5
tp3315
I1
s(g18
g21
g8
tp3316
I137
s(g5
g30
g35
tp3317
I2
s(g17
g5
g50
tp3318
I3
s(g39
g6
g69
tp3319
I75
s(g27
g14
g69
tp3320
I1
s(g55
g5
g21
tp3321
I3
s(g39
g31
g8
tp3322
I3
s(g106
g35
g39
tp3323
I1
s(g26
g21
g25
tp3324
I3
s(g27
g26
g18
tp3325
I707
s(g5
g6
g106
tp3326
I3
s(g6
g69
g17
tp3327
I41
s(g21
g6
g15
tp3328
I5
s(g26
g21
g18
tp3329
I11
s(g21
g25
g18
tp3330
I9
s(g26
g8
g25
tp3331
I36
s(g18
g26
g31
tp3332
I681
s(g23
g10
g5
tp3333
I576
s(g4
g5
g27
tp3334
I468
s(g9
g5
g74
tp3335
I40
s(g39
g8
g5
tp3336
I172
s(g6
g26
g50
tp3337
I323
s(g31
g31
g6
tp3338
I1
s(g5
g35
g21
tp3339
I18
s(g39
g17
g50
tp3340
I2
s(g21
g26
g10
tp3341
I2
s(g39
g23
g39
tp3342
I88
s(g26
g23
g4
tp3343
I963
s(g31
g15
g39
tp3344
I57
s(g30
g4
g17
tp3345
I7
s(g6
g21
g10
tp3346
I4
s(g69
g21
g25
tp3347
I2
s(g6
g39
g21
tp3348
I56
s(g26
g27
g12
tp3349
I488
s(g8
g9
g21
tp3350
I56
s(g23
g21
g5
tp3351
I295
s(g14
g26
g23
tp3352
I241
s(g21
g15
g69
tp3353
I1
s(g171
g5
g4
tp3354
I6
s(g31
g6
g26
tp3355
I26
s(g4
g39
g39
tp3356
I490
s(g31
g26
g9
tp3357
I16
s(g31
g69
g21
tp3358
I4
s(g17
g21
g4
tp3359
I235
s(g10
g6
g39
tp3360
I6
s(g69
g12
g21
tp3361
I14
s(g27
g50
g26
tp3362
I200
s(g39
g17
g6
tp3363
I1241
s(g14
g21
g27
tp3364
I148
s(g6
g18
g5
tp3365
I32
s(g171
g23
g26
tp3366
I72
s(g9
g5
g23
tp3367
I1
s(g21
g31
g9
tp3368
I32
s(g14
g14
g5
tp3369
I28
s(g50
g39
g23
tp3370
I7
s(g55
g21
g6
tp3371
I4
s(g25
g17
g30
tp3372
I1
s(g9
g17
g14
tp3373
I1
s(g17
g30
g26
tp3374
I8
s(g8
g15
g23
tp3375
I4
s(g21
g9
g8
tp3376
I7
s(g26
g18
g12
tp3377
I6
s(g5
g5
g8
tp3378
I3
s(g23
g5
g9
tp3379
I35
s(g10
g17
g8
tp3380
I184
s(g23
g26
g31
tp3381
I242
s(g27
g4
g12
tp3382
I27
s(g4
g23
g10
tp3383
I582
s(g27
g5
g74
tp3384
I32
s(g18
g39
g27
tp3385
I210
s(g31
g18
g26
tp3386
I9
s(g27
g12
g39
tp3387
I1
s(g17
g10
g10
tp3388
I4
s(g6
g18
g50
tp3389
I1
s(g15
g21
g12
tp3390
I1
s(g23
g26
g5
tp3391
I31
s(g8
g14
g18
tp3392
I5
s(g8
g23
g12
tp3393
I66
s(g8
g31
g21
tp3394
I127
s(g5
g69
g15
tp3395
I1
s(g69
g8
g17
tp3396
I19
s(g69
g69
g12
tp3397
I3
s(g39
g4
g14
tp3398
I2
s(g12
g18
g15
tp3399
I2
s(g50
g4
g8
tp3400
I1
s(g23
g39
g8
tp3401
I337
s(g69
g21
g50
tp3402
I66
s(g5
g12
g4
tp3403
I2
s(g6
g39
g4
tp3404
I1414
s(g5
g74
g26
tp3405
I59
s(g26
g14
g10
tp3406
I35
s(g5
g6
g23
tp3407
I519
s(g5
g18
g15
tp3408
I23
s(g25
g8
g21
tp3409
I315
s(g39
g14
g31
tp3410
I1
s(g15
g23
g8
tp3411
I36
s(g10
g15
g18
tp3412
I1
s(g21
g27
g5
tp3413
I133
s(g17
g8
g31
tp3414
I66
s(g26
g21
g14
tp3415
I2
s(g50
g21
g31
tp3416
I194
s(g14
g5
g23
tp3417
I138
s(g6
g27
g26
tp3418
I51
s(g14
g26
g12
tp3419
I2
s(g26
g12
g35
tp3420
I2
s(g8
g69
g17
tp3421
I88
s(g26
g26
g26
tp3422
I26
s(g23
g21
g69
tp3423
I37
s(g15
g21
g30
tp3424
I25
s(g21
g39
g27
tp3425
I46
s(g30
g26
g9
tp3426
I3
s(g27
g31
g27
tp3427
I32
s(g5
g9
g39
tp3428
I118
s(g9
g31
g26
tp3429
I1
s(g21
g18
g106
tp3430
I1
s(g25
g23
g5
tp3431
I1
s(g50
g21
g18
tp3432
I222
s(g6
g26
g21
tp3433
I27
s(g17
g25
g23
tp3434
I2
s(g39
g23
g27
tp3435
I10
s(g14
g12
g55
tp3436
I2
s(g21
g6
g10
tp3437
I23
s(g21
g5
g8
tp3438
I91
s(g17
g50
g26
tp3439
I8
s(g26
g35
g69
tp3440
I1
s(g39
g9
g39
tp3441
I2
s(g8
g4
g14
tp3442
I1
s(g5
g18
g5
tp3443
I43
s(g27
g21
g9
tp3444
I367
s(g26
g18
g23
tp3445
I117
s(g25
g4
g69
tp3446
I4
s(g8
g39
g6
tp3447
I970
s(g74
g26
g18
tp3448
I35
s(g27
g18
g26
tp3449
I118
s(g4
g4
g39
tp3450
I102
s(g18
g4
g39
tp3451
I608
s(g31
g106
g17
tp3452
I2
s(g26
g12
g15
tp3453
I1
s(g17
g6
g35
tp3454
I17
s(g5
g74
g74
tp3455
I5
s(g26
g157
tp3456
I42847
s(g6
g30
g21
tp3457
I110
s(g8
g21
g4
tp3458
I321
s(g69
g5
g171
tp3459
I1
s(g21
g31
g6
tp3460
I10
s(g26
g26
g27
tp3461
I281
s(g30
g21
g26
tp3462
I16
s(g27
g35
g5
tp3463
I175
s(g55
g39
g25
tp3464
I36
s(g21
g6
g18
tp3465
I697
s(g14
g18
g18
tp3466
I2
s(g12
g8
g26
tp3467
I2
s(g4
g12
g21
tp3468
I4
s(g26
g26
g69
tp3469
I4
s(g26
g15
g8
tp3470
I2
s(g4
g14
g4
tp3471
I1
s(g27
g26
g27
tp3472
I8
s(g8
g21
g9
tp3473
I602
s(g4
g5
g25
tp3474
I241
s(g18
g27
g12
tp3475
I312
s(g171
g17
g5
tp3476
I4
s(g6
g27
g21
tp3477
I47
s(g25
g39
g25
tp3478
I22
s(g5
g14
g8
tp3479
I14
s(g14
g5
g12
tp3480
I27
s(g14
g26
g17
tp3481
I5
s(g39
g17
g31
tp3482
I189
s(g23
g10
g8
tp3483
I57
s(g30
g21
g14
tp3484
I10
s(g5
g171
g14
tp3485
I1
s(g30
g25
g39
tp3486
I1
s(g69
g21
g9
tp3487
I81
s(g10
g12
g23
tp3488
I5
s(g27
g69
g21
tp3489
I9
s(g17
g18
g12
tp3490
I26
s(g27
g21
g25
tp3491
I89
s(g39
g18
g9
tp3492
I1
s(g5
g8
g27
tp3493
I282
s(g23
g21
g25
tp3494
I3
s(g15
g23
g18
tp3495
I1
s(g26
g39
g9
tp3496
I1
s(g27
g39
g18
tp3497
I316
s(g6
g21
g4
tp3498
I254
s(g27
g4
g39
tp3499
I14
s(g18
g26
g69
tp3500
I15
s(g39
g12
g15
tp3501
I2
s(g18
g21
g171
tp3502
I80
s(g6
g26
g14
tp3503
I3
s(g18
g4
g26
tp3504
I1095
s(g18
g5
g23
tp3505
I26
s(g6
g31
g26
tp3506
I822
s(g17
g9
g25
tp3507
I1
s(g9
g21
g39
tp3508
I37
s(g27
g26
g17
tp3509
I17
s(g14
g10
g17
tp3510
I3
s(g21
g26
g6
tp3511
I422
s(g26
g4
g8
tp3512
I175
s(g21
g5
g31
tp3513
I3
s(g31
g17
g25
tp3514
I1
s(g9
g18
g21
tp3515
I6
s(g23
g26
g6
tp3516
I335
s(g10
g27
g5
tp3517
I1
s(g5
g31
g12
tp3518
I150
s(g55
g39
g9
tp3519
I2
s(g27
g25
g39
tp3520
I26
s(g5
g23
g8
tp3521
I139
s(g14
g18
g8
tp3522
I1
s(g4
g25
g69
tp3523
I1
s(g17
g6
g14
tp3524
I28
s(g23
g30
g14
tp3525
I12
s(g17
g5
g12
tp3526
I1
s(g15
g26
g171
tp3527
I12
s(g17
g9
g26
tp3528
I45
s(g4
g18
g39
tp3529
I17
s(g9
g21
g74
tp3530
I5
s(g26
g8
g10
tp3531
I77
s(g4
g26
g35
tp3532
I30
s(g25
g55
g26
tp3533
I94
s(g17
g4
g18
tp3534
I113
s(g15
g6
g21
tp3535
I7
s(g25
g26
g26
tp3536
I626
s(g18
g39
g14
tp3537
I38
s(g12
g35
g5
tp3538
I22
s(g9
g10
g25
tp3539
I27
s(g69
g4
g35
tp3540
I1
s(g4
g30
g26
tp3541
I1
s(g18
g10
g27
tp3542
I12
s(g5
g8
g21
tp3543
I394
s(g21
g50
g50
tp3544
I4
s(g14
g26
g27
tp3545
I112
s(g21
g39
g21
tp3546
I1
s(g25
g39
g4
tp3547
I272
s(g15
g5
g171
tp3548
I9
s(g27
g9
g21
tp3549
I6
s(g39
g9
g26
tp3550
I91
s(g26
g17
g26
tp3551
I2
s(g14
g18
g26
tp3552
I51
s(g17
g15
g9
tp3553
I1
s(g8
g39
g17
tp3554
I1232
s(g8
g5
g14
tp3555
I172
s(g17
g27
g5
tp3556
I267
s(g39
g4
g5
tp3557
I71
s(g30
g39
g8
tp3558
I1
s(g4
g21
g4
tp3559
I135
s(g8
g26
g35
tp3560
I213
s(g69
g26
g6
tp3561
I59
s(g69
g21
g14
tp3562
I1
s(g5
g18
g30
tp3563
I231
s(g21
g5
g9
tp3564
I14
s(g21
g21
g6
tp3565
I3
s(g12
g5
g6
tp3566
I20
s(g9
g39
g8
tp3567
I154
s(g27
g18
g39
tp3568
I163
s(g69
g39
g23
tp3569
I17
s(g8
g31
g17
tp3570
I7
s(g21
g15
g12
tp3571
I5
s(g27
g23
g10
tp3572
I63
s(g26
g21
g50
tp3573
I42
s(g39
g69
g4
tp3574
I111
s(g31
g39
g23
tp3575
I53
s(g5
g69
g5
tp3576
I2
s(g15
g5
g17
tp3577
I5
s(g74
g5
g25
tp3578
I6
s(g23
g31
g39
tp3579
I1
s(g4
g15
g69
tp3580
I1
s(g21
g39
g6
tp3581
I2700
s(g5
g8
g8
tp3582
I1829
s(g10
g21
g31
tp3583
I64
s(g23
g26
g15
tp3584
I34
s(g74
g17
g15
tp3585
I1
s(g26
g4
g17
tp3586
I101
s(g12
g15
g18
tp3587
I2
s(g27
g5
g39
tp3588
I1
s(g10
g12
g27
tp3589
I36
s(g5
g25
g17
tp3590
I14
s(g69
g17
g26
tp3591
I6
s(g27
g8
g21
tp3592
I22
s(g14
g4
g50
tp3593
I4
s(g10
g5
g25
tp3594
I27
s(g10
g39
g17
tp3595
I1359
s(g15
g21
g15
tp3596
I11
s(g26
g27
g39
tp3597
I140
s(g21
g5
g23
tp3598
I15
s(g27
g31
g17
tp3599
I1
s(g4
g5
g50
tp3600
I5
s(g17
g6
g25
tp3601
I12
s(g95
g23
tp3602
I9761
s(g171
g26
g12
tp3603
I1
s(g39
g35
g5
tp3604
I181
s(g31
g27
g12
tp3605
I250
s(g14
g21
g14
tp3606
I33
s(g39
g55
g39
tp3607
I2
s(g18
g14
g39
tp3608
I193
s(g74
g21
g30
tp3609
I2
s(g27
g9
g8
tp3610
I2
s(g23
g31
g5
tp3611
I3
s(g4
g35
g39
tp3612
I334
s(g9
g26
g14
tp3613
I1
s(g69
g9
g5
tp3614
I1
s(g26
g8
g74
tp3615
I19
s(g10
g8
g5
tp3616
I28
s(g26
g23
g12
tp3617
I2
s(g74
g5
g8
tp3618
I116
s(g21
g5
g6
tp3619
I388
s(g26
g39
g50
tp3620
I8
s(g31
g30
g5
tp3621
I58
s(g21
g9
g10
tp3622
I1667
s(g25
g26
g69
tp3623
I228
s(g9
g26
g35
tp3624
I7
s(g35
g21
g18
tp3625
I177
s(g27
g15
g17
tp3626
I1
s(g8
g4
g39
tp3627
I18
s(g6
g9
g6
tp3628
I2
s(g17
g25
g31
tp3629
I8
s(g39
g39
g18
tp3630
I58
s(g15
g17
g18
tp3631
I388
s(g6
g17
g8
tp3632
I37
s(g21
g74
g17
tp3633
I4
s(g9
g21
g5
tp3634
I53
s(g25
g69
g39
tp3635
I1
s(g21
g26
g31
tp3636
I468
s(g17
g15
g25
tp3637
I312
s(g5
g35
g6
tp3638
I39
s(g8
g26
g26
tp3639
I590
s(g74
g5
g9
tp3640
I4
s(g69
g17
g27
tp3641
I463
s(g55
g26
g6
tp3642
I9
s(g39
g15
g15
tp3643
I263
s(g14
g26
g9
tp3644
I5
s(g21
g39
g18
tp3645
I8
s(g17
g14
g10
tp3646
I2
s(g30
g17
g18
tp3647
I2
s(g6
g9
g12
tp3648
I6
s(g171
g35
g26
tp3649
I3
s(g9
g10
g4
tp3650
I1909
s(g69
g4
g18
tp3651
I30
s(g26
g55
g26
tp3652
I10
s(g35
g5
g12
tp3653
I812
s(g9
g39
g15
tp3654
I2
s(g39
g17
g25
tp3655
I97
s(g31
g15
g18
tp3656
I1
s(g6
g12
g69
tp3657
I1
s(g4
g27
g5
tp3658
I6
s(g74
g26
g15
tp3659
I4
s(g4
g26
g15
tp3660
I195
s(g9
g17
g21
tp3661
I74
s(g25
g5
g15
tp3662
I12
s(g25
g6
g26
tp3663
I1
s(g15
g15
g31
tp3664
I1
s(g31
g39
g31
tp3665
I24
s(g15
g39
g31
tp3666
I96
s(g17
g21
g5
tp3667
I1
s(g8
g14
g27
tp3668
I38
s(g10
g5
g23
tp3669
I8
s(g17
g27
g69
tp3670
I13
s(g30
g26
g26
tp3671
I115
s(g14
g5
g35
tp3672
I8
s(g21
g8
g25
tp3673
I2
s(g21
g14
g14
tp3674
I175
s(g69
g5
g25
tp3675
I5
s(g14
g26
g8
tp3676
I1049
s(g8
g9
g17
tp3677
I32
s(g171
g10
g5
tp3678
I15
s(g8
g12
g4
tp3679
I76
s(g14
g69
g21
tp3680
I2
s(g18
g21
g17
tp3681
I5
s(g6
g26
g6
tp3682
I38
s(g35
g5
g6
tp3683
I441
s(g6
g21
g15
tp3684
I59
s(g12
g18
g18
tp3685
I2
s(g39
g8
g50
tp3686
I1
s(g27
g4
g8
tp3687
I5
s(g5
g26
g15
tp3688
I1
s(g15
g12
g18
tp3689
I43
s(g5
g10
g21
tp3690
I2
s(g15
g6
g27
tp3691
I6
s(g10
g39
g14
tp3692
I227
s(g18
g15
g17
tp3693
I11
s(g4
g18
g30
tp3694
I2
s(g5
g4
g4
tp3695
I443
s(g6
g26
g5
tp3696
I293
s(g25
g12
g74
tp3697
I2
s(g15
g23
g50
tp3698
I3
s(g14
g21
g8
tp3699
I49
s(g39
g39
g8
tp3700
I459
s(g18
g17
g6
tp3701
I60
s(g31
g39
g15
tp3702
I54
s(g69
g26
g4
tp3703
I33
s(g27
g5
g69
tp3704
I1
s(g9
g12
g14
tp3705
I6
s(g26
g26
g21
tp3706
I22
s(g25
g5
g31
tp3707
I76
s(g9
g50
g5
tp3708
I1
s(g4
g10
g39
tp3709
I1018
s(g15
g14
g35
tp3710
I1
s(g10
g8
g39
tp3711
I578
s(g23
g39
g5
tp3712
I43
s(g21
g18
g15
tp3713
I94
s(g17
g21
g6
tp3714
I46
s(g15
g6
g5
tp3715
I5
s(g171
g21
g4
tp3716
I5
s(g25
g21
g6
tp3717
I167
s(g39
g23
g14
tp3718
I1
s(g27
g17
g35
tp3719
I1
s(g8
g12
g14
tp3720
I43
s(g23
g30
g31
tp3721
I2
s(g10
g25
g5
tp3722
I27
s(g39
g5
g4
tp3723
I78
s(g14
g8
g15
tp3724
I1
s(g21
g12
g5
tp3725
I3
s(g6
g21
g23
tp3726
I276
s(g5
g6
g39
tp3727
I276
s(g39
g18
g106
tp3728
I6
s(g4
g26
g6
tp3729
I752
s(g31
g26
g26
tp3730
I117
s(g50
g157
tp3731
I28
s(g4
g21
g5
tp3732
I81
s(g4
g18
g21
tp3733
I73
s(g5
g8
g9
tp3734
I289
s(g17
g9
g18
tp3735
I33
s(g27
g21
g31
tp3736
I159
s(g12
g26
g31
tp3737
I61
s(g39
g26
g69
tp3738
I1
s(g35
g21
g4
tp3739
I2152
s(g39
g5
g69
tp3740
I3
s(g31
g26
g106
tp3741
I5
s(g18
g6
g39
tp3742
I23
s(g31
g18
g21
tp3743
I7
s(g25
g8
g5
tp3744
I240
s(g18
g39
g31
tp3745
I20
s(g39
g69
g18
tp3746
I6
s(g26
g171
g17
tp3747
I9
s(g5
g4
g12
tp3748
I4
s(g55
g17
g31
tp3749
I34
s(g4
g26
g23
tp3750
I70
s(g17
g21
g26
tp3751
I51
s(g27
g8
g39
tp3752
I2
s(g27
g14
g26
tp3753
I11
s(g8
g21
g23
tp3754
I339
s(g8
g14
g10
tp3755
I10
s(g17
g15
g21
tp3756
I31
s(g14
g39
g18
tp3757
I330
s(g26
g5
g69
tp3758
I20
s(g23
g17
g18
tp3759
I101
s(g23
g6
g21
tp3760
I1
s(g15
g9
g5
tp3761
I1
s(g23
g27
g23
tp3762
I1
s(g8
g14
g21
tp3763
I25
s(g6
g4
g14
tp3764
I1
s(g8
g18
g14
tp3765
I3
s(g23
g21
g9
tp3766
I4
s(g4
g39
g31
tp3767
I48
s(g8
g4
g21
tp3768
I347
s(g39
g10
g12
tp3769
I1
s(g23
g39
g35
tp3770
I17
s(g39
g8
g6
tp3771
I184
s(g10
g39
g18
tp3772
I319
s(g26
g12
g25
tp3773
I3
s(g5
g21
g4
tp3774
I145
s(g4
g31
g5
tp3775
I2
s(g17
g6
g31
tp3776
I1363
s(g26
g31
g74
tp3777
I4
s(g55
g39
g6
tp3778
I23
s(g50
g26
g12
tp3779
I32
s(g15
g39
g35
tp3780
I5
s(g14
g17
g27
tp3781
I201
s(g18
g26
g25
tp3782
I4
s(g27
g18
g18
tp3783
I1
s(g23
g23
g25
tp3784
I2
s(g5
g21
g5
tp3785
I2
s(g23
g27
g17
tp3786
I182
s(g171
g23
g27
tp3787
I18
s(g9
g9
g5
tp3788
I15
s(g15
g5
g69
tp3789
I1
s(g55
g17
g15
tp3790
I180
s(g15
g26
g5
tp3791
I331
s(g30
g5
g74
tp3792
I7
s(g6
g26
g31
tp3793
I848
s(g17
g4
g15
tp3794
I1
s(g21
g6
g12
tp3795
I57
s(g4
g39
g30
tp3796
I8
s(g50
g26
g35
tp3797
I4
s(g171
g21
g15
tp3798
I15
s(g69
g69
g26
tp3799
I616
s(g35
g14
g39
tp3800
I3
s(g12
g5
g5
tp3801
I1
s(g4
g27
g39
tp3802
I3
s(g21
g26
g50
tp3803
I150
s(g8
g50
g26
tp3804
I108
s(g6
g39
g74
tp3805
I1
s(g6
g21
g26
tp3806
I101
s(g8
g15
g21
tp3807
I448
s(g39
g25
g18
tp3808
I70
s(g27
g27
g12
tp3809
I676
s(g21
g8
g4
tp3810
I90
s(g14
g25
g171
tp3811
I1
s(g12
g15
g39
tp3812
I20
s(g27
g27
g27
tp3813
I5
s(g31
g5
g31
tp3814
I41
s(g4
g10
g69
tp3815
I14
s(g5
g27
g31
tp3816
I24
s(g8
g23
g27
tp3817
I28
s(g8
g26
g23
tp3818
I458
s(g95
g6
tp3819
I4232
s(g23
g21
g21
tp3820
I3
s(g39
g12
g5
tp3821
I27
s(g30
g6
g21
tp3822
I15
s(g17
g18
g39
tp3823
I11
s(g39
g8
g9
tp3824
I236
s(g17
g9
g17
tp3825
I7
s(g27
g26
g21
tp3826
I23
s(g39
g26
g15
tp3827
I1
s(g5
g15
g25
tp3828
I189
s(g6
g9
g27
tp3829
I230
s(g31
g39
g35
tp3830
I649
s(g5
g69
g23
tp3831
I2
s(g26
g39
g31
tp3832
I5
s(g4
g12
g27
tp3833
I25
s(g39
g31
g5
tp3834
I63
s(g14
g27
g21
tp3835
I177
s(g69
g69
g27
tp3836
I46
s(g23
g21
g39
tp3837
I81
s(g39
g5
g74
tp3838
I1
s(g5
g17
g15
tp3839
I4
s(g21
g27
g23
tp3840
I53
s(g17
g4
g31
tp3841
I3
s(g39
g21
g31
tp3842
I47
s(g8
g27
g18
tp3843
I58
s(g23
g26
g35
tp3844
I6
s(g8
g39
g12
tp3845
I70
s(g8
g5
g27
tp3846
I315
s(g39
g23
g26
tp3847
I81
s(g23
g30
g9
tp3848
I5
s(g31
g39
g74
tp3849
I26
s(g27
g14
g8
tp3850
I6
s(g14
g17
g14
tp3851
I10
s(g25
g39
g9
tp3852
I1
s(g26
g14
g12
tp3853
I11
s(g26
g8
g4
tp3854
I279
s(g23
g39
g4
tp3855
I24
s(g10
g21
g23
tp3856
I761
s(g18
g14
g8
tp3857
I164
s(g6
g23
g27
tp3858
I158
s(g35
g18
g4
tp3859
I1
s(g27
g21
g6
tp3860
I1196
s(g4
g26
g31
tp3861
I1491
s(g23
g69
g15
tp3862
I1
s(g23
g25
g5
tp3863
I3
s(g17
g17
g15
tp3864
I13
s(g21
g25
g39
tp3865
I7
s(g25
g4
g18
tp3866
I4
s(g26
g21
g8
tp3867
I635
s(g10
g6
g26
tp3868
I7
s(g8
g31
g39
tp3869
I38
s(g10
g26
g27
tp3870
I377
s(g27
g26
g8
tp3871
I198
s(g23
g21
g31
tp3872
I99
s(g106
g25
g5
tp3873
I1
s(g50
g5
g31
tp3874
I5
s(g26
g12
g27
tp3875
I1
s(g12
g27
g17
tp3876
I1
s(g5
g4
g8
tp3877
I44
s(g17
g21
g27
tp3878
I110
s(g27
g17
g30
tp3879
I3
s(g21
g55
g39
tp3880
I2
s(g23
g5
g6
tp3881
I669
s(g14
g21
g4
tp3882
I136
s(g26
g26
g14
tp3883
I331
s(g21
g6
g55
tp3884
I8
s(g12
g4
g39
tp3885
I1
s(g23
g10
g15
tp3886
I18
s(g5
g27
g6
tp3887
I2
s(g9
g21
g69
tp3888
I11
s(g6
g5
g27
tp3889
I459
s(g35
g26
g27
tp3890
I437
s(g14
g18
g21
tp3891
I50
s(g26
g18
g5
tp3892
I20
s(g25
g26
g21
tp3893
I170
s(g26
g74
g26
tp3894
I33
s(g10
g39
g30
tp3895
I15
s(g5
g12
g5
tp3896
I5
s(g27
g12
g55
tp3897
I12
s(g17
g4
g25
tp3898
I3
s(g39
g31
g12
tp3899
I172
s(g17
g21
g23
tp3900
I197
s(g17
g5
g6
tp3901
I25
s(g25
g50
g26
tp3902
I5
s(g23
g26
g8
tp3903
I180
s(g14
g21
g35
tp3904
I1
s(g50
g8
g23
tp3905
I1
s(g5
g10
g35
tp3906
I1
s(g8
g4
g50
tp3907
I1
s(g74
g74
g12
tp3908
I14
s(g26
g14
g8
tp3909
I53
s(g15
g18
g21
tp3910
I6
s(g9
g5
g31
tp3911
I6
s(g23
g23
g12
tp3912
I2
s(g21
g6
g17
tp3913
I222
s(g18
g26
g12
tp3914
I6
s(g5
g14
g5
tp3915
I54
s(g4
g31
g26
tp3916
I1
s(g30
g26
g14
tp3917
I72
s(g18
g26
g27
tp3918
I568
s(g5
g12
g27
tp3919
I15
s(g23
g27
g5
tp3920
I262
s(g31
g25
g26
tp3921
I1
s(g5
g35
g25
tp3922
I14
s(g69
g6
g26
tp3923
I7
s(g26
g27
g23
tp3924
I24
s(g74
g31
g31
tp3925
I1
s(g9
g17
g18
tp3926
I38
s(g55
g21
g4
tp3927
I1
s(g6
g27
g17
tp3928
I3
s(g15
g23
g17
tp3929
I1
s(g6
g5
g26
tp3930
I7
s(g21
g4
g8
tp3931
I16
s(g6
g17
g15
tp3932
I118
s(g39
g50
g21
tp3933
I130
s(g5
g21
g9
tp3934
I84
s(g5
g4
g35
tp3935
I2
s(g5
g27
g9
tp3936
I22
s(g69
g26
g15
tp3937
I18
s(g26
g6
g12
tp3938
I11
s(g17
g14
g27
tp3939
I35
s(g8
g30
g27
tp3940
I9
s(g6
g39
g17
tp3941
I169
s(g26
g69
g69
tp3942
I106
s(g8
g17
g10
tp3943
I2
s(g6
g30
g6
tp3944
I4
s(g12
g39
g8
tp3945
I28
s(g14
g31
g15
tp3946
I1
s(g35
g30
g26
tp3947
I30
s(g39
g14
g26
tp3948
I629
s(g21
g35
g21
tp3949
I2
s(g39
g9
g12
tp3950
I47
s(g5
g39
g27
tp3951
I1
s(g15
g15
g12
tp3952
I34
s(g5
g31
g23
tp3953
I68
s(g55
g5
g17
tp3954
I4
s(g21
g30
g21
tp3955
I22
s(g5
g18
g12
tp3956
I26
s(g17
g23
g30
tp3957
I180
s(g25
g17
g23
tp3958
I27
s(g26
g35
g4
tp3959
I188
s(g27
g10
g21
tp3960
I11
s(g10
g18
g23
tp3961
I4
s(g35
g21
g74
tp3962
I85
s(g10
g15
g5
tp3963
I4
s(g14
g4
g12
tp3964
I46
s(g17
g26
g8
tp3965
I10
s(g23
g5
g39
tp3966
I8
s(g5
g14
g10
tp3967
I131
s(g15
g14
g8
tp3968
I55
s(g6
g55
g5
tp3969
I6
s(g8
g8
g17
tp3970
I35
s(g21
g18
g8
tp3971
I5
s(g21
g15
g18
tp3972
I202
s(g26
g9
g39
tp3973
I17
s(g74
g6
g26
tp3974
I2
s(g8
g21
g27
tp3975
I147
s(g15
g21
g6
tp3976
I828
s(g31
g21
g27
tp3977
I24
s(g171
g21
g50
tp3978
I6
s(g8
g12
g31
tp3979
I4
s(g25
g21
g8
tp3980
I64
s(g18
g17
g25
tp3981
I129
s(g4
g23
g25
tp3982
I1
s(g5
g6
g12
tp3983
I702
s(g26
g31
g31
tp3984
I18
s(g6
g30
g27
tp3985
I47
s(g18
g5
g6
tp3986
I201
s(g30
g18
g10
tp3987
I5
s(g25
g157
tp3988
I204
s(g6
g31
g69
tp3989
I7
s(g5
g10
g26
tp3990
I28
s(g69
g27
g17
tp3991
I78
s(g26
g35
g21
tp3992
I61
s(g39
g74
g12
tp3993
I1
s(g69
g5
g18
tp3994
I85
s(g8
g27
g39
tp3995
I16
s(g15
g8
g18
tp3996
I1
s(g4
g5
g4
tp3997
I373
s(g15
g14
g27
tp3998
I296
s(g39
g8
g21
tp3999
I233
s(g8
g27
g21
tp4000
I66
s(g23
g17
g26
tp4001
I9
s(g9
g9
g6
tp4002
I1
s(g31
g12
g35
tp4003
I1
s(g5
g18
g25
tp4004
I4
s(g39
g9
g17
tp4005
I13
s(g27
g39
g26
tp4006
I9
s(g23
g5
g26
tp4007
I3
s(g26
g26
g15
tp4008
I281
s(g15
g21
g23
tp4009
I88
s(g21
g39
g4
tp4010
I16
s(g18
g18
g17
tp4011
I64
s(g31
g31
g4
tp4012
I1
s(g69
g8
g21
tp4013
I171
s(g6
g12
g39
tp4014
I49
s(g21
g18
g21
tp4015
I261
s(g6
g31
g5
tp4016
I216
s(g4
g39
g9
tp4017
I89
s(g9
g6
g21
tp4018
I64
s(g30
g5
g10
tp4019
I40
s(g6
g26
g8
tp4020
I375
s(g35
g5
g25
tp4021
I4
s(g6
g21
g27
tp4022
I22
s(g18
g39
g50
tp4023
I3
s(g8
g6
g5
tp4024
I322
s(g25
g69
g15
tp4025
I1
s(g25
g39
g5
tp4026
I56
s(g39
g6
g5
tp4027
I391
s(g15
g26
g17
tp4028
I1
s(g21
g31
g39
tp4029
I99
s(g14
g14
g12
tp4030
I54
s(g17
g171
g35
tp4031
I2
s(g27
g27
g25
tp4032
I6
s(g17
g50
g5
tp4033
I1
s(g21
g4
g27
tp4034
I23
s(g27
g31
g39
tp4035
I8
s(g10
g27
g12
tp4036
I54
s(g14
g18
g12
tp4037
I25
s(g39
g17
g9
tp4038
I1165
s(g15
g31
g18
tp4039
I2
s(g171
g157
tp4040
I256
s(g15
g26
g6
tp4041
I908
s(g10
g5
g17
tp4042
I27
s(g15
g69
g39
tp4043
I55
s(g25
g18
g18
tp4044
I1
s(g26
g69
g4
tp4045
I156
s(g23
g23
g4
tp4046
I3
s(g6
g31
g4
tp4047
I2
s(g39
g27
g17
tp4048
I113
s(g30
g21
g15
tp4049
I11
s(g21
g10
g69
tp4050
I1
s(g4
g30
g21
tp4051
I1
s(g31
g17
g69
tp4052
I1
s(g35
g10
g39
tp4053
I694
s(g21
g21
g4
tp4054
I3
s(g35
g157
tp4055
I2747
s(g25
g6
g23
tp4056
I1
s(g10
g18
g31
tp4057
I1
s(g12
g4
g21
tp4058
I6
s(g21
g15
g14
tp4059
I296
s(g17
g23
g26
tp4060
I81
s(g8
g17
g15
tp4061
I182
s(g27
g26
g4
tp4062
I492
s(g30
g12
g27
tp4063
I1
s(g17
g15
g15
tp4064
I59
s(g5
g74
g12
tp4065
I17
s(g21
g8
g9
tp4066
I9
s(g18
g18
g8
tp4067
I10
s(g10
g4
g12
tp4068
I10
s(g8
g27
g31
tp4069
I111
s(g4
g9
g8
tp4070
I2
s(g6
g17
g6
tp4071
I7
s(g4
g39
g26
tp4072
I29
s(g5
g31
g17
tp4073
I27
s(g74
g39
g8
tp4074
I1
s(g6
g35
g5
tp4075
I26
s(g21
g4
g26
tp4076
I658
s(g69
g26
g35
tp4077
I128
s(g26
g23
g10
tp4078
I140
s(g8
g12
g18
tp4079
I10
s(g6
g39
g15
tp4080
I49
s(g27
g5
g23
tp4081
I330
s(g18
g30
g12
tp4082
I83
s(g10
g15
g26
tp4083
I47
s(g6
g17
g5
tp4084
I29
s(g4
g8
g17
tp4085
I291
s(g8
g15
g18
tp4086
I137
s(g25
g25
g26
tp4087
I88
s(g5
g30
g27
tp4088
I9
s(g50
g8
g26
tp4089
I1
s(g27
g17
g10
tp4090
I5
s(g26
g6
g55
tp4091
I31
s(g18
g39
g26
tp4092
I5
s(g10
g26
g5
tp4093
I926
s(g23
g69
g8
tp4094
I2
s(g39
g171
g21
tp4095
I35
s(g31
g21
g50
tp4096
I88
s(g30
g12
g18
tp4097
I1
s(g23
g35
g21
tp4098
I1
s(g26
g5
g35
tp4099
I1
s(g6
g31
g15
tp4100
I54
s(g39
g6
g25
tp4101
I2
s(g9
g4
g5
tp4102
I1
s(g35
g4
g39
tp4103
I6
s(g21
g69
g5
tp4104
I7
s(g23
g4
g39
tp4105
I205
s(g35
g5
g23
tp4106
I2
s(g21
g5
g27
tp4107
I268
s(g69
g17
g23
tp4108
I23
s(g17
g8
g9
tp4109
I50
s(g74
g5
g6
tp4110
I4
s(g25
g39
g18
tp4111
I10
s(g25
g5
g8
tp4112
I135
s(g4
g21
g17
tp4113
I2
s(g21
g74
g74
tp4114
I23
s(g26
g27
g4
tp4115
I204
s(g8
g39
g4
tp4116
I124
s(g171
g23
g8
tp4117
I4
s(g14
g27
g4
tp4118
I1
s(g9
g9
g17
tp4119
I5
s(g18
g18
g69
tp4120
I2
s(g26
g50
g50
tp4121
I2
s(g10
g5
g12
tp4122
I9
s(g6
g10
g30
tp4123
I1
s(g15
g5
g25
tp4124
I6
s(g39
g9
g5
tp4125
I19
s(g26
g69
g23
tp4126
I1
s(g27
g23
g21
tp4127
I5
s(g10
g17
g27
tp4128
I16
s(g12
g26
g5
tp4129
I236
s(g25
g5
g30
tp4130
I12
s(g12
g18
g39
tp4131
I1
s(g5
g18
g6
tp4132
I1
s(g6
g25
g21
tp4133
I1
s(g21
g74
g39
tp4134
I14
s(g69
g21
g6
tp4135
I611
s(g8
g6
g26
tp4136
I326
s(g12
g8
g18
tp4137
I2
s(g27
g39
g69
tp4138
I2
s(g39
g39
g31
tp4139
I586
s(g17
g8
g8
tp4140
I194
s(g25
g21
g26
tp4141
I26
s(g15
g25
g69
tp4142
I1
s(g171
g21
g5
tp4143
I4
s(g21
g30
g12
tp4144
I1
s(g26
g12
g26
tp4145
I382
s(g26
g5
g25
tp4146
I12
s(g8
g157
tp4147
I13643
s(g26
g9
g18
tp4148
I50
s(g18
g25
g23
tp4149
I1
s(g17
g18
g5
tp4150
I96
s(g12
g27
g5
tp4151
I2
s(g27
g12
g50
tp4152
I1
s(g15
g15
g15
tp4153
I4
s(g14
g5
g31
tp4154
I9
s(g26
g25
g39
tp4155
I52
s(g26
g23
g39
tp4156
I338
s(g21
g27
g39
tp4157
I112
s(g6
g31
g27
tp4158
I94
s(g39
g23
g21
tp4159
I179
s(g17
g6
g5
tp4160
I57
s(g39
g39
g30
tp4161
I1240
s(g5
g4
g26
tp4162
I1525
s(g21
g15
g17
tp4163
I50
s(g15
g6
g6
tp4164
I1
s(g26
g23
g18
tp4165
I6
s(g26
g21
g15
tp4166
I7
s(g30
g27
g26
tp4167
I75
s(g21
g31
g15
tp4168
I1
s(g39
g5
g6
tp4169
I49
s(g27
g12
g27
tp4170
I1
s(g39
g26
g21
tp4171
I5
s(g18
g17
g27
tp4172
I81
s(g26
g4
g74
tp4173
I1
s(g15
g21
g8
tp4174
I52
s(g12
g14
g6
tp4175
I19
s(g35
g5
g30
tp4176
I52
s(g5
g31
g106
tp4177
I2
s(g12
g5
g9
tp4178
I5
s(g17
g6
g55
tp4179
I1
s(g6
g9
g17
tp4180
I88
s(g17
g31
g9
tp4181
I89
s(g23
g39
g23
tp4182
I70
s(g30
g26
g35
tp4183
I3
s(g35
g15
g39
tp4184
I1
s(g31
g5
g27
tp4185
I23
s(g8
g31
g25
tp4186
I1
s(g15
g39
g6
tp4187
I379
s(g8
g18
g31
tp4188
I6
s(g12
g14
g39
tp4189
I10
s(g17
g25
g50
tp4190
I5
s(g30
g26
g39
tp4191
I1
s(g69
g17
g15
tp4192
I22
s(g39
g5
g8
tp4193
I110
s(g27
g17
g25
tp4194
I22
s(g15
g21
g26
tp4195
I12
s(g26
g5
g50
tp4196
I180
s(g39
g4
g8
tp4197
I5
s(g21
g31
g21
tp4198
I83
s(g23
g15
g21
tp4199
I4
s(g27
g21
g106
tp4200
I39
s(g8
g8
g10
tp4201
I6
s(g8
g12
g5
tp4202
I12
s(g10
g15
g17
tp4203
I2
s(g8
g9
g9
tp4204
I1
s(g17
g23
g12
tp4205
I2
s(g6
g26
g171
tp4206
I186
s(g35
g5
g171
tp4207
I2
s(g25
g50
g21
tp4208
I24
s(g9
g15
g5
tp4209
I6
s(g15
g4
g26
tp4210
I1
s(g18
g18
g21
tp4211
I459
s(g26
g25
g12
tp4212
I5
s(g8
g69
g27
tp4213
I7
s(g14
g4
g17
tp4214
I31
s(g21
g25
g26
tp4215
I53
s(g171
g12
g18
tp4216
I1
s(g4
g23
g5
tp4217
I2
s(g26
g25
g27
tp4218
I23
s(g35
g21
g8
tp4219
I29
s(g31
g26
g18
tp4220
I366
s(g23
g21
g18
tp4221
I77
s(g5
g9
g21
tp4222
I150
s(g69
g5
g5
tp4223
I2
s(g95
g106
tp4224
I646
s(g39
g14
g12
tp4225
I57
s(g35
g12
g26
tp4226
I10
s(g10
g12
g31
tp4227
I26
s(g23
g4
g69
tp4228
I3
s(g9
g6
g5
tp4229
I60
s(g15
g15
g26
tp4230
I216
s(g12
g69
g26
tp4231
I1
s(g30
g26
g27
tp4232
I36
s(g5
g12
g21
tp4233
I146
s(g95
g12
tp4234
I4030
s(g39
g5
g31
tp4235
I181
s(g14
g17
g23
tp4236
I15
s(g12
g9
g26
tp4237
I1
s(g39
g27
g25
tp4238
I1
s(g5
g8
g106
tp4239
I1
s(g27
g10
g39
tp4240
I13
s(g25
g18
g17
tp4241
I10
s(g5
g21
g21
tp4242
I4
s(g171
g26
g8
tp4243
I11
s(g35
g6
g35
tp4244
I8
s(g18
g4
g12
tp4245
I88
s(g8
g39
g39
tp4246
I465
s(g171
g21
g31
tp4247
I6
s(g14
g157
tp4248
I1423
s(g17
g26
g5
tp4249
I23
s(g4
g26
g14
tp4250
I141
s(g4
g21
g6
tp4251
I1517
s(g26
g12
g39
tp4252
I27
s(g35
g14
g69
tp4253
I1
s(g21
g14
g17
tp4254
I5
s(g17
g26
g31
tp4255
I65
s(g17
g5
g8
tp4256
I133
s(g35
g21
g9
tp4257
I31
s(g35
g4
g5
tp4258
I1
s(g23
g30
g35
tp4259
I31
s(g17
g4
g8
tp4260
I12
s(g30
g35
g39
tp4261
I1
s(g4
g5
g39
tp4262
I1
s(g25
g21
g30
tp4263
I1
s(g69
g18
g21
tp4264
I4
s(g18
g12
g18
tp4265
I72
s(g21
g21
g26
tp4266
I1
s(g26
g8
g69
tp4267
I181
s(g27
g5
g9
tp4268
I22
s(g4
g74
g21
tp4269
I1
s(g12
g14
g5
tp4270
I1
s(g39
g25
g27
tp4271
I76
s(g23
g10
g26
tp4272
I845
s(g171
g17
g31
tp4273
I1
s(g26
g27
g9
tp4274
I2
s(g31
g39
g27
tp4275
I25
s(g8
g6
g39
tp4276
I90
s(g8
g17
g31
tp4277
I30
s(g25
g10
g21
tp4278
I1
s(g21
g23
g39
tp4279
I57
s(g21
g69
g39
tp4280
I14
s(g21
g14
g10
tp4281
I15
s(g21
g8
g23
tp4282
I91
s(g12
g18
g21
tp4283
I63
s(g17
g5
g9
tp4284
I31
s(g35
g69
g27
tp4285
I1
s(g4
g21
g27
tp4286
I522
s(g25
g26
g18
tp4287
I214
s(g27
g30
g5
tp4288
I8
s(g6
g5
g18
tp4289
I33
s(g21
g26
g17
tp4290
I11
s(g26
g23
g5
tp4291
I251
s(g106
g17
g21
tp4292
I555
s(g6
g31
g50
tp4293
I2
s(g17
g27
g31
tp4294
I1244
s(g50
g5
g21
tp4295
I29
s(g12
g31
g8
tp4296
I26
s(g39
g74
g21
tp4297
I5
s(g23
g18
g69
tp4298
I1
s(g17
g6
g8
tp4299
I27
s(g18
g26
g6
tp4300
I407
s(g9
g17
g4
tp4301
I33
s(g27
g35
g39
tp4302
I3
s(g5
g6
g27
tp4303
I5
s(g5
g5
g50
tp4304
I1
s(g9
g157
tp4305
I10101
s(g4
g6
g26
tp4306
I28
s(g27
g39
g12
tp4307
I15
s(g27
g8
g6
tp4308
I1
s(g5
g18
g21
tp4309
I161
s(g23
g21
g15
tp4310
I5
s(g31
g26
g21
tp4311
I1
s(g26
g6
g17
tp4312
I20
s(g21
g18
g26
tp4313
I405
s(g39
g15
g14
tp4314
I327
s(g39
g6
g31
tp4315
I480
s(g4
g39
g23
tp4316
I21
s(g17
g6
g74
tp4317
I3
s(g8
g26
g171
tp4318
I11
s(g17
g25
g27
tp4319
I158
s(g10
g25
g21
tp4320
I3
s(g12
g39
g12
tp4321
I2
s(g23
g17
g4
tp4322
I141
s(g6
g18
g15
tp4323
I19
s(g4
g27
g12
tp4324
I463
s(g23
g39
g50
tp4325
I128
s(g9
g39
g12
tp4326
I36
s(g4
g26
g17
tp4327
I4
s(g4
g9
g21
tp4328
I2
s(g5
g74
g5
tp4329
I13
s(g26
g14
g27
tp4330
I81
s(g31
g23
g17
tp4331
I2
s(g95
g4
tp4332
I31882
s(g35
g26
g14
tp4333
I18
s(g15
g5
g21
tp4334
I163
s(g12
g15
g26
tp4335
I15
s(g15
g26
g25
tp4336
I39
s(g5
g4
g23
tp4337
I292
s(g15
g21
g9
tp4338
I164
s(g18
g26
g171
tp4339
I24
s(g4
g17
g21
tp4340
I11
s(g21
g69
g69
tp4341
I163
s(g17
g31
g21
tp4342
I127
s(g39
g27
g12
tp4343
I35
s(g9
g10
g35
tp4344
I1
s(g18
g21
g69
tp4345
I20
s(g9
g15
g4
tp4346
I4
s(g26
g18
g30
tp4347
I35
s(g6
g171
g21
tp4348
I35
s(g55
g17
g27
tp4349
I12
s(g95
g171
tp4350
I8
s(g6
g74
g5
tp4351
I2
s(g27
g6
g18
tp4352
I1
s(g5
g14
g12
tp4353
I1
s(g39
g6
g74
tp4354
I3
s(g9
g21
g18
tp4355
I23
s(g5
g4
g27
tp4356
I15
s(g6
g9
g10
tp4357
I2
s(g15
g23
g10
tp4358
I4
s(g10
g4
g69
tp4359
I16
s(g10
g26
g69
tp4360
I2
s(g14
g8
g12
tp4361
I2
s(g18
g69
g26
tp4362
I11
s(g39
g25
g8
tp4363
I26
s(g25
g25
g5
tp4364
I4
s(g23
g26
g14
tp4365
I123
s(g25
g6
g39
tp4366
I6
s(g27
g4
g17
tp4367
I26
s(g39
g31
g27
tp4368
I8
s(g35
g26
g6
tp4369
I327
s(g26
g9
g21
tp4370
I108
s(g17
g6
g27
tp4371
I75
s(g18
g74
g21
tp4372
I1
s(g39
g35
g18
tp4373
I163
s(g4
g18
g50
tp4374
I1
s(g4
g17
g25
tp4375
I32
s(g39
g26
g27
tp4376
I1
s(g69
g26
g25
tp4377
I18
s(g30
g5
g27
tp4378
I16
s(g18
g9
g21
tp4379
I1
s(g8
g5
g74
tp4380
I28
s(g4
g12
g15
tp4381
I6
s(g17
g12
g17
tp4382
I1
s(g9
g8
g26
tp4383
I505
s(g9
g9
g21
tp4384
I59
s(g15
g25
g17
tp4385
I28
s(g4
g5
g69
tp4386
I15
s(g6
g39
g18
tp4387
I70
s(g31
g39
g50
tp4388
I3
s(g30
g5
g8
tp4389
I23
s(g23
g12
g21
tp4390
I1
s(g31
g4
g4
tp4391
I1
s(g26
g18
g39
tp4392
I35
s(g4
g15
g21
tp4393
I3
s(g26
g17
g9
tp4394
I2
s(g39
g18
g17
tp4395
I1
s(g9
g39
g9
tp4396
I26
s(g8
g5
g15
tp4397
I219
s(g12
g8
g21
tp4398
I26
s(g14
g35
g5
tp4399
I19
s(g5
g31
g26
tp4400
I444
s(g18
g4
g21
tp4401
I948
s(g21
g31
g5
tp4402
I67
s(g26
g6
g74
tp4403
I15
s(g171
g5
g23
tp4404
I50
s(g8
g39
g171
tp4405
I10
s(g31
g10
g5
tp4406
I2
s(g39
g18
g30
tp4407
I41
s(g31
g21
g23
tp4408
I165
s(g39
g14
g8
tp4409
I9
s(g15
g17
g9
tp4410
I68
s(g35
g39
g25
tp4411
I1
s(g27
g17
g15
tp4412
I108
s(g171
g39
g14
tp4413
I5
s(g6
g39
g69
tp4414
I4
s(g5
g25
g21
tp4415
I117
s(g35
g4
g10
tp4416
I6
s(g4
g69
g6
tp4417
I1
s(g30
g5
g18
tp4418
I2
s(g35
g5
g50
tp4419
I65
s(g8
g25
g17
tp4420
I6
s(g10
g26
g15
tp4421
I1062
s(g17
g23
g21
tp4422
I52
s(g18
g6
g17
tp4423
I5
s(g18
g5
g9
tp4424
I74
s(g55
g5
g30
tp4425
I3
s(g6
g25
g15
tp4426
I1
s(g35
g39
g17
tp4427
I471
s(g5
g27
g30
tp4428
I314
s(g4
g4
g17
tp4429
I1
s(g27
g21
g30
tp4430
I802
s(g35
g30
g35
tp4431
I6
s(g17
g26
g4
tp4432
I27
s(g50
g26
g10
tp4433
I6
s(g23
g4
g23
tp4434
I1
s(g4
g21
g106
tp4435
I5
s(g30
g14
g26
tp4436
I1
s(g35
g15
g4
tp4437
I1
s(g26
g21
g31
tp4438
I8
s(g14
g27
g5
tp4439
I598
s(g5
g12
g25
tp4440
I37
s(g14
g26
g26
tp4441
I101
s(g5
g21
g14
tp4442
I1
s(g6
g21
g69
tp4443
I64
s(g39
g35
g12
tp4444
I7
s(g39
g21
g27
tp4445
I94
s(g21
g9
g4
tp4446
I1
s(g18
g5
g8
tp4447
I51
s(g8
g5
g31
tp4448
I145
s(g26
g50
g21
tp4449
I214
s(g31
g55
g26
tp4450
I3
s(g21
g6
g9
tp4451
I9544
s(g5
g15
g15
tp4452
I104
s(g21
g8
g26
tp4453
I415
s(g15
g25
g8
tp4454
I54
s(g27
g30
g8
tp4455
I2
s(g4
g5
g23
tp4456
I163
s(g18
g31
g171
tp4457
I1
s(g14
g14
g8
tp4458
I91
s(g14
g5
g26
tp4459
I21
s(g6
g39
g14
tp4460
I25
s(g15
g5
g35
tp4461
I1
s(g5
g30
g21
tp4462
I309
s(g50
g21
g25
tp4463
I14
s(g55
g21
g15
tp4464
I8
s(g10
g26
g31
tp4465
I620
s(g17
g14
g4
tp4466
I51
s(g39
g74
g5
tp4467
I3
s(g35
g25
g26
tp4468
I13
s(g5
g17
g171
tp4469
I6
s(g14
g21
g23
tp4470
I206
s(g18
g15
g26
tp4471
I35
s(g17
g14
g31
tp4472
I4
s(g23
g50
g23
tp4473
I1
s(g27
g27
g5
tp4474
I99
s(g15
g23
g4
tp4475
I1
s(g5
g9
g18
tp4476
I14
s(g21
g157
tp4477
I174
s(g4
g69
g18
tp4478
I1
s(g6
g35
g10
tp4479
I23
s(g23
g14
g15
tp4480
I2
s(g10
g17
g14
tp4481
I2
s(g8
g39
g55
tp4482
I105
s(g4
g50
g8
tp4483
I1
s(g21
g15
g21
tp4484
I133
s(g5
g17
g6
tp4485
I56
s(g69
g21
g4
tp4486
I50
s(g8
g35
g39
tp4487
I1
s(g6
g17
g25
tp4488
I1
s(g39
g18
g10
tp4489
I6
s(g31
g21
g25
tp4490
I21
s(g31
g9
g26
tp4491
I202
s(g10
g4
g21
tp4492
I23
s(g8
g6
g12
tp4493
I1
s(g14
g69
g23
tp4494
I4
s(g18
g23
g55
tp4495
I1
s(g39
g8
g39
tp4496
I41
s(g27
g69
g8
tp4497
I3
s(g14
g10
g5
tp4498
I129
s(g26
g69
g26
tp4499
I120
s(g21
g30
g18
tp4500
I13
s(g8
g18
g10
tp4501
I22
s(g8
g21
g30
tp4502
I130
s(g5
g10
g39
tp4503
I4
s(g39
g31
g25
tp4504
I6
s(g55
g39
g30
tp4505
I19
s(g6
g14
g5
tp4506
I2
s(g31
g25
g18
tp4507
I2
s(g5
g6
g5
tp4508
I189
s(g6
g8
g21
tp4509
I8
s(g9
g5
g27
tp4510
I163
s(g39
g23
g23
tp4511
I54
s(g31
g6
g4
tp4512
I31
s(g21
g26
g30
tp4513
I35
s(g5
g14
g21
tp4514
I49
s(g18
g26
g4
tp4515
I219
s(g55
g17
g6
tp4516
I14
s(g39
g4
g15
tp4517
I11
s(g31
g26
g25
tp4518
I13
s(g25
g5
g12
tp4519
I16
s(g17
g27
g12
tp4520
I17
s(g35
g8
g4
tp4521
I2
s(g95
g35
tp4522
I15256
s(g8
g50
g39
tp4523
I43
s(g31
g21
g15
tp4524
I40
s(g26
g35
g35
tp4525
I5
s(g8
g27
g12
tp4526
I261
s(g171
g26
g15
tp4527
I4
s(g95
g5
tp4528
I17653
s(g26
g31
g26
tp4529
I83
s(g35
g9
g5
tp4530
I1
s(g26
g14
g4
tp4531
I238
s(g30
g8
g17
tp4532
I1
s(g4
g39
g6
tp4533
I250
s(g5
g8
g26
tp4534
I1416
s(g31
g17
g50
tp4535
I1
s(g12
g18
g23
tp4536
I1
s(g69
g35
g10
tp4537
I1
s(g12
g50
g21
tp4538
I1
s(g39
g15
g31
tp4539
I2
s(g31
g39
g25
tp4540
I144
s(g5
g25
g27
tp4541
I533
s(g15
g23
g31
tp4542
I4
s(g39
g25
g26
tp4543
I99
s(g18
g39
g17
tp4544
I235
s(g55
g23
g21
tp4545
I1
s(g26
g26
g6
tp4546
I1057
s(g9
g25
g6
tp4547
I1
s(g15
g5
g4
tp4548
I1015
s(g31
g5
g8
tp4549
I317
s(g4
g39
g17
tp4550
I79
s(g26
g15
g26
tp4551
I570
s(g25
g39
g12
tp4552
I135
s(g23
g8
g26
tp4553
I527
s(g39
g31
g31
tp4554
I70
s(g9
g8
g39
tp4555
I309
s(g25
g31
g39
tp4556
I3
s(g9
g5
g18
tp4557
I62
s(g26
g171
g4
tp4558
I328
s(g23
g17
g39
tp4559
I7
s(g8
g39
g8
tp4560
I79
s(g26
g35
g27
tp4561
I5
s(g26
g9
g5
tp4562
I214
s(g15
g39
g171
tp4563
I2
s(g5
g18
g9
tp4564
I1
s(g27
g21
g5
tp4565
I118
s(g4
g14
g8
tp4566
I2
s(g5
g5
g25
tp4567
I1
s(g5
g14
g14
tp4568
I665
s(g10
g21
g27
tp4569
I351
s(g4
g69
g14
tp4570
I1
s(g8
g15
g4
tp4571
I3
s(g27
g4
g21
tp4572
I81
s(g14
g4
g27
tp4573
I9
s(g30
g5
g21
tp4574
I4
s(g31
g30
g21
tp4575
I1
s(g6
g50
g21
tp4576
I56
s(g26
g39
g18
tp4577
I7
s(g35
g6
g25
tp4578
I1
s(g21
g39
g25
tp4579
I1
s(g5
g8
g6
tp4580
I118
s(g21
g30
g4
tp4581
I2
s(g171
g26
g31
tp4582
I39
s(g21
g25
g25
tp4583
I23
s(g15
g18
g5
tp4584
I2
s(g5
g25
g39
tp4585
I654
s(g9
g39
g21
tp4586
I221
s(g39
g30
g39
tp4587
I5
s(g10
g4
g18
tp4588
I75
s(g23
g12
g171
tp4589
I2
s(g18
g23
g21
tp4590
I174
s(g12
g14
g8
tp4591
I3
s(g26
g35
g5
tp4592
I55
s(g30
g39
g6
tp4593
I22
s(g5
g74
g17
tp4594
I1
s(g9
g9
g9
tp4595
I10
s(g5
g26
g5
tp4596
I1
s(g17
g6
g39
tp4597
I4
s(g39
g14
g4
tp4598
I49
s(g12
g21
g18
tp4599
I2
s(g39
g157
tp4600
I2830
s(g69
g21
g31
tp4601
I22
s(g6
g17
g30
tp4602
I3
s(g14
g5
g18
tp4603
I323
s(g25
g25
g39
tp4604
I3
s(g17
g8
g5
tp4605
I158
s(g30
g39
g35
tp4606
I1
s(g39
g27
g4
tp4607
I113
s(g69
g23
g25
tp4608
I1
s(g39
g9
g27
tp4609
I3
s(g39
g15
g21
tp4610
I214
s(g6
g12
g35
tp4611
I31
s(g5
g31
g27
tp4612
I84
s(g18
g157
tp4613
I22660
s(g17
g25
g4
tp4614
I38
s(g171
g4
g8
tp4615
I91
s(g12
g4
g10
tp4616
I338
s(g26
g23
g15
tp4617
I1
s(g18
g5
g27
tp4618
I72
s(g23
g4
g26
tp4619
I119
s(g10
g5
g35
tp4620
I17
s(g21
g5
g25
tp4621
I14
s(g23
g5
g50
tp4622
I11
s(g5
g15
g18
tp4623
I89
s(g25
g39
g21
tp4624
I41
s(g8
g69
g21
tp4625
I3
s(g15
g26
g14
tp4626
I1
s(g39
g21
g18
tp4627
I100
s(g8
g35
g26
tp4628
I9
s(g31
g18
g35
tp4629
I1
s(g18
g15
g14
tp4630
I1
s(g18
g39
g8
tp4631
I389
s(g21
g4
g31
tp4632
I1
s(g18
g4
g10
tp4633
I57
s(g69
g39
g17
tp4634
I371
s(g50
g5
g14
tp4635
I10
s(g17
g14
g5
tp4636
I2
s(g8
g18
g6
tp4637
I1
s(g39
g9
g9
tp4638
I15
s(g6
g31
g6
tp4639
I33
s(g17
g8
g106
tp4640
I8
s(g17
g6
g9
tp4641
I252
s(g30
g21
g69
tp4642
I6
s(g17
g26
g17
tp4643
I15
s(g55
g39
g5
tp4644
I5
s(g6
g4
g69
tp4645
I7
s(g95
g8
tp4646
I6611
s(g21
g39
g9
tp4647
I10
s(g9
g10
g18
tp4648
I10
s(g30
g8
g26
tp4649
I3
s(g55
g39
g8
tp4650
I37
s(g69
g23
g23
tp4651
I14
s(g5
g14
g18
tp4652
I127
s(g5
g17
g21
tp4653
I1
s(g9
g35
g8
tp4654
I1
s(g21
g12
g17
tp4655
I1
s(g35
g5
g17
tp4656
I1
s(g15
g17
g8
tp4657
I89
s(g5
g21
g18
tp4658
I128
s(g9
g14
g21
tp4659
I1
s(g17
g27
g14
tp4660
I27
s(g26
g18
g4
tp4661
I868
s(g5
g5
g5
tp4662
I40
s(g50
g8
g21
tp4663
I1
s(g18
g35
g39
tp4664
I35
s(g39
g35
g10
tp4665
I7
s(g12
g18
g10
tp4666
I1
s(g17
g4
g12
tp4667
I32
s(g8
g17
g6
tp4668
I211
s(g14
g21
g26
tp4669
I120
s(g25
g39
g8
tp4670
I100
s(g26
g17
g35
tp4671
I17
s(g26
g8
g171
tp4672
I4
s(g8
g39
g18
tp4673
I327
s(g8
g5
g10
tp4674
I11
s(g10
g17
g15
tp4675
I144
s(g9
g39
g4
tp4676
I434
s(g69
g21
g15
tp4677
I1
s(g31
g17
g27
tp4678
I86
s(g30
g39
g14
tp4679
I2
s(g17
g27
g21
tp4680
I35
s(g21
g8
g35
tp4681
I14
s(g39
g15
g6
tp4682
I3
s(g35
g21
g14
tp4683
I23
s(g18
g5
g5
tp4684
I3
s(g25
g27
g39
tp4685
I211
s(g14
g9
g27
tp4686
I1
s(g18
g69
g27
tp4687
I1
s(g23
g39
g17
tp4688
I875
s(g18
g18
g4
tp4689
I1
s(g23
g8
g39
tp4690
I368
s(g26
g6
g8
tp4691
I69
s(g31
g6
g5
tp4692
I5
s(g18
g26
g50
tp4693
I155
s(g18
g18
g39
tp4694
I413
s(g171
g12
g9
tp4695
I1
s(g55
g27
g5
tp4696
I1
s(g27
g31
g8
tp4697
I58
s(g39
g6
g27
tp4698
I389
s(g17
g18
g30
tp4699
I3
s(g39
g39
g26
tp4700
I3
s(g12
g17
g4
tp4701
I1
s(g5
g69
g8
tp4702
I39
s(g6
g31
g17
tp4703
I54
s(g31
g17
g5
tp4704
I38
s(g10
g39
g31
tp4705
I37
s(g12
g69
g8
tp4706
I2
s(g39
g69
g69
tp4707
I722
s(g17
g50
g21
tp4708
I2
s(g4
g26
g8
tp4709
I2499
s(g8
g5
g21
tp4710
I395
s(g50
g26
g8
tp4711
I2734
s(g5
g15
g14
tp4712
I166
s(g55
g26
g4
tp4713
I15
s(g55
g39
g35
tp4714
I1
s(g69
g26
g50
tp4715
I9
s(g35
g21
g26
tp4716
I21
s(g31
g10
g39
tp4717
I4
s(g5
g23
g25
tp4718
I1
s(g17
g4
g14
tp4719
I1
s(g21
g5
g5
tp4720
I3
s(g9
g26
g5
tp4721
I18
s(g27
g12
g18
tp4722
I22
s(g30
g26
g5
tp4723
I4
s(g55
g26
g23
tp4724
I223
s(g55
g12
g15
tp4725
I3
s(g39
g30
g26
tp4726
I506
s(g9
g6
g39
tp4727
I47
s(g27
g31
g26
tp4728
I218
s(g35
g8
g5
tp4729
I11
s(g4
g26
g9
tp4730
I31
s(g31
g74
g26
tp4731
I4
s(g25
g5
g23
tp4732
I610
s(g4
g74
g18
tp4733
I1
s(g39
g27
g39
tp4734
I194
s(g17
g14
g25
tp4735
I11
s(g23
g39
g25
tp4736
I6
s(g17
g15
g17
tp4737
I3
s(g25
g23
g39
tp4738
I1
s(g74
g5
g4
tp4739
I46
s(g30
g17
g15
tp4740
I1
s(g6
g5
g9
tp4741
I139
s(g69
g69
g5
tp4742
I16
s(g5
g10
g18
tp4743
I1
s(g10
g26
g14
tp4744
I7
s(g30
g26
g6
tp4745
I180
s(g6
g12
g10
tp4746
I15
s(g8
g27
g69
tp4747
I1
s(g39
g10
g10
tp4748
I5
s(g17
g27
g18
tp4749
I52
s(g12
g17
g27
tp4750
I2
s(g8
g9
g39
tp4751
I63
s(g8
g4
g15
tp4752
I23
s(g14
g26
g21
tp4753
I10
s(g31
g35
g26
tp4754
I3
s(g27
g17
g14
tp4755
I5
s(g23
g21
g50
tp4756
I37
s(g6
g4
g6
tp4757
I1
s(g14
g5
g27
tp4758
I92
s(g6
g17
g4
tp4759
I168
s(g12
g35
g10
tp4760
I19
s(g21
g8
g14
tp4761
I13
s(g21
g27
g35
tp4762
I3
s(g6
g27
g5
tp4763
I2
s(g25
g25
g18
tp4764
I1
s(g10
g31
g8
tp4765
I6
s(g26
g18
g31
tp4766
I10
s(g17
g25
g18
tp4767
I55
s(g27
g5
g4
tp4768
I585
s(g8
g26
g9
tp4769
I123
s(g17
g10
g5
tp4770
I6
s(g17
g15
g18
tp4771
I34
s(g26
g6
g18
tp4772
I343
s(g12
g10
g26
tp4773
I2
s(g17
g31
g27
tp4774
I75
s(g15
g26
g15
tp4775
I163
s(g35
g17
g6
tp4776
I10
s(g26
g18
g18
tp4777
I1408
s(g5
g5
g10
tp4778
I1
s(g27
g30
g27
tp4779
I2
s(g10
g4
g6
tp4780
I12
s(g4
g12
g14
tp4781
I30
s(g8
g69
g39
tp4782
I35
s(g39
g6
g39
tp4783
I57
s(g18
g30
g17
tp4784
I6
s(g26
g27
g27
tp4785
I1108
s(g10
g39
g9
tp4786
I102
s(g6
g30
g12
tp4787
I2
s(g15
g5
g10
tp4788
I5
s(g26
g4
g26
tp4789
I249
s(g10
g5
g5
tp4790
I2
s(g4
g21
g39
tp4791
I1927
s(g8
g10
g21
tp4792
I4
s(g17
g6
g17
tp4793
I12
s(g31
g26
g50
tp4794
I50
s(g27
g23
g5
tp4795
I5
s(g15
g23
g5
tp4796
I1
s(g10
g5
g8
tp4797
I2157
s(g21
g23
g10
tp4798
I543
s(g5
g171
g35
tp4799
I1
s(g6
g39
g10
tp4800
I1
s(g17
g10
g27
tp4801
I1
s(g4
g14
g31
tp4802
I1
s(g8
g21
g35
tp4803
I1
s(g10
g39
g21
tp4804
I42
s(g18
g27
g21
tp4805
I196
s(g15
g5
g30
tp4806
I365
s(g26
g31
g12
tp4807
I15
s(g6
g27
g12
tp4808
I571
s(g10
g106
g17
tp4809
I2
s(g12
g23
g26
tp4810
I3
s(g30
g39
g50
tp4811
I2
s(g18
g18
g10
tp4812
I2
s(g30
g14
g21
tp4813
I10
s(g69
g26
g27
tp4814
I219
s(g10
g12
g18
tp4815
I50
s(g10
g39
g8
tp4816
I250
s(g14
g39
g26
tp4817
I21
s(g12
g27
g12
tp4818
I3
s(g21
g18
g30
tp4819
I109
s(g6
g26
g23
tp4820
I75
s(g5
g26
g18
tp4821
I54
s(g4
g17
g4
tp4822
I47
s(g21
g26
g9
tp4823
I6
s(g21
g23
g74
tp4824
I2
s(g23
g10
g31
tp4825
I3
s(g171
g14
g5
tp4826
I12
s(g8
g23
g30
tp4827
I4
s(g15
g23
g23
tp4828
I9
s(g39
g30
g35
tp4829
I3
s(g30
g39
g26
tp4830
I1
s(g18
g5
g17
tp4831
I16
s(g21
g15
g15
tp4832
I123
s(g18
g14
g5
tp4833
I123
s(g15
g17
g23
tp4834
I233
s(g27
g15
g39
tp4835
I161
s(g26
g5
g4
tp4836
I995
s(g21
g26
g4
tp4837
I164
s(g26
g5
g39
tp4838
I1
s(g10
g27
g17
tp4839
I33
s(g4
g17
g18
tp4840
I22
s(g31
g23
g27
tp4841
I1
s(g39
g8
g69
tp4842
I4
s(g21
g14
g15
tp4843
I31
s(g6
g9
g8
tp4844
I83
s(g8
g18
g27
tp4845
I39
s(g5
g8
g18
tp4846
I344
s(g5
g23
g27
tp4847
I36
s(g15
g17
g10
tp4848
I1
s(g39
g31
g6
tp4849
I5
s(g74
g21
g5
tp4850
I3
s(g8
g35
g10
tp4851
I4
s(g27
g12
g21
tp4852
I125
s(g17
g17
g8
tp4853
I1
s(g26
g55
g17
tp4854
I5
s(g8
g14
g39
tp4855
I61
s(g14
g27
g27
tp4856
I1
s(g18
g17
g26
tp4857
I21
s(g17
g26
g74
tp4858
I99
s(g15
g26
g10
tp4859
I17
s(g9
g9
g27
tp4860
I101
s(g8
g171
g26
tp4861
I4
s(g21
g8
g12
tp4862
I27
s(g27
g17
g74
tp4863
I1
s(g5
g18
g14
tp4864
I88
s(g12
g27
g50
tp4865
I5
s(g17
g23
g8
tp4866
I1
s(g4
g10
g5
tp4867
I2608
s(g69
g18
g30
tp4868
I1
s(g55
g5
g25
tp4869
I5
s(g17
g4
g23
tp4870
I32
s(g14
g4
g26
tp4871
I113
s(g10
g5
g18
tp4872
I409
s(g6
g23
g14
tp4873
I1
s(g8
g6
g25
tp4874
I5
s(g12
g55
g5
tp4875
I2
s(g17
g5
g30
tp4876
I2
s(g10
g17
g69
tp4877
I28
s(g26
g6
g4
tp4878
I2546
s(g5
g15
g50
tp4879
I1
s(g8
g9
g26
tp4880
I450
s(g26
g26
g4
tp4881
I287
s(g5
g50
g39
tp4882
I87
s(g17
g18
g18
tp4883
I61
s(g4
g21
g25
tp4884
I21
s(g6
g50
g26
tp4885
I103
s(g8
g21
g26
tp4886
I687
s(g4
g69
g39
tp4887
I19
s(g35
g39
g18
tp4888
I2
s(g39
g15
g18
tp4889
I73
s(g4
g15
g39
tp4890
I10
s(g6
g18
g27
tp4891
I24
s(g39
g14
g5
tp4892
I39
s(g10
g6
g18
tp4893
I27
s(g6
g106
g17
tp4894
I33
s(g17
g25
g21
tp4895
I26
s(g69
g26
g26
tp4896
I547
s(g31
g5
g30
tp4897
I1
s(g5
g12
g10
tp4898
I2
s(g25
g6
g21
tp4899
I3
s(g5
g27
g10
tp4900
I2
s(g25
g17
g9
tp4901
I2
s(g5
g55
g21
tp4902
I2
s(g6
g9
g31
tp4903
I2
s(g6
g5
g14
tp4904
I194
s(g5
g21
g8
tp4905
I464
s(g4
g4
g18
tp4906
I12
s(g27
g21
g15
tp4907
I158
s(g21
g27
g17
tp4908
I10
s(g18
g26
g23
tp4909
I303
s(g6
g17
g9
tp4910
I3
s(g4
g26
g171
tp4911
I29
s(g39
g26
g50
tp4912
I70
s(g27
g5
g50
tp4913
I42
s(g18
g31
g17
tp4914
I1
s(g39
g10
g6
tp4915
I124
s(g18
g17
g4
tp4916
I1
s(g6
g69
g21
tp4917
I52
s(g4
g39
g171
tp4918
I19
s(g17
g69
g26
tp4919
I2
s(g69
g26
g5
tp4920
I95
s(g31
g21
g14
tp4921
I20
s(g39
g17
g30
tp4922
I1
s(g25
g26
g10
tp4923
I205
s(g35
g27
g26
tp4924
I65
s(g5
g8
g25
tp4925
I57
s(g21
g30
g10
tp4926
I2
s(g26
g5
g27
tp4927
I478
s(g8
g26
g14
tp4928
I322
s(g6
g69
g27
tp4929
I28
s(g14
g21
g25
tp4930
I2
s(g9
g27
g17
tp4931
I12
s(g55
g39
g10
tp4932
I124
s(g5
g15
g39
tp4933
I153
s(g9
g21
g4
tp4934
I32
s(g4
g10
g21
tp4935
I2425
s(g6
g18
g26
tp4936
I225
s(g26
g8
g6
tp4937
I580
s(g171
g14
g39
tp4938
I6
s(g9
g39
g6
tp4939
I221
s(g27
g8
g12
tp4940
I2
s(g69
g5
g35
tp4941
I32
s(g14
g14
g14
tp4942
I3
s(g8
g21
g74
tp4943
I48
s(g9
g69
g17
tp4944
I3
s(g12
g15
g25
tp4945
I29
s(g23
g25
g39
tp4946
I1
s(g21
g9
g5
tp4947
I38
s(g6
g5
g21
tp4948
I37
s(g50
g5
g27
tp4949
I111
s(g39
g50
g18
tp4950
I19
s(g10
g6
g5
tp4951
I44
s(g14
g31
g4
tp4952
I1
s(g12
g6
g4
tp4953
I29
s(g25
g26
g15
tp4954
I3
s(g31
g5
g25
tp4955
I14
s(g4
g17
g5
tp4956
I93
s(g18
g25
g39
tp4957
I3
s(g21
g55
g21
tp4958
I1
s(g8
g27
g26
tp4959
I62
s(g35
g15
g5
tp4960
I2
s(g27
g12
g15
tp4961
I1
s(g27
g25
g18
tp4962
I1
s(g55
g26
g35
tp4963
I9
s(g5
g12
g39
tp4964
I6
s(g26
g10
g26
tp4965
I38
s(g30
g5
g35
tp4966
I3
s(g106
g17
g5
tp4967
I188
s(g6
g31
g18
tp4968
I416
s(g18
g4
g35
tp4969
I4
s(g31
g26
g4
tp4970
I75
s(g39
g30
g18
tp4971
I182
s(g21
g69
g12
tp4972
I38
s(g17
g23
g27
tp4973
I13
s(g18
g23
g26
tp4974
I104
s(g27
g15
g26
tp4975
I12
s(g5
g18
g17
tp4976
I62
s(g17
g4
g4
tp4977
I191
s(g39
g14
g18
tp4978
I80
s(g6
g12
g25
tp4979
I7
s(g18
g14
g18
tp4980
I6
s(g39
g8
g15
tp4981
I510
s(g5
g6
g4
tp4982
I958
s(g14
g23
g18
tp4983
I1
s(g39
g74
g39
tp4984
I2
s(g18
g35
g21
tp4985
I91
s(g17
g27
g39
tp4986
I26
s(g6
g9
g18
tp4987
I323
s(g39
g31
g18
tp4988
I71
s(g6
g55
g17
tp4989
I11
s(g27
g39
g5
tp4990
I121
s(g10
g5
g4
tp4991
I3398
s(g39
g10
g5
tp4992
I1
s(g39
g50
g5
tp4993
I24
s(g26
g69
g14
tp4994
I1
s(g5
g23
g12
tp4995
I11
s(g6
g25
g27
tp4996
I1
s(g27
g17
g27
tp4997
I4
s(g5
g55
g17
tp4998
I1
s(g31
g31
g10
tp4999
I2
s(g25
g25
g12
tp5000
I159
s(g31
g31
g5
tp5001
I8
s(g8
g17
g74
tp5002
I1
s(g30
g8
g21
tp5003
I1
s(g26
g26
g8
tp5004
I232
s(g5
g30
g18
tp5005
I22
s(g18
g26
g8
tp5006
I337
s(g5
g21
g106
tp5007
I1
s(g27
g26
g14
tp5008
I43
s(g171
g26
g18
tp5009
I20
s(g14
g4
g39
tp5010
I32
s(g25
g21
g106
tp5011
I2
s(g18
g15
g39
tp5012
I74
s(g6
g6
g26
tp5013
I208
s(g8
g5
g26
tp5014
I1
s(g31
g50
g26
tp5015
I39
s(g26
g31
g23
tp5016
I1
s(g4
g69
g21
tp5017
I1
s(g8
g31
g8
tp5018
I10
s(g8
g15
g69
tp5019
I3
s(g18
g8
g39
tp5020
I9
s(g5
g23
g6
tp5021
I1
s(g8
g50
g21
tp5022
I104
s(g31
g10
g26
tp5023
I5
s(g171
g14
g17
tp5024
I1
s(g5
g9
g10
tp5025
I3
s(g21
g8
g31
tp5026
I86
s(g31
g30
g26
tp5027
I5
s(g31
g5
g4
tp5028
I100
s(g4
g21
g8
tp5029
I126
s(g31
g14
g17
tp5030
I2
s(g27
g31
g23
tp5031
I1
s(g21
g6
g31
tp5032
I1098
s(g10
g26
g26
tp5033
I127
s(g18
g18
g23
tp5034
I2
s(g21
g31
g17
tp5035
I31
s(g18
g50
g26
tp5036
I1
s(g31
g25
g27
tp5037
I16
s(g31
g21
g74
tp5038
I8
s(g31
g50
g31
tp5039
I2
s(g5
g10
g12
tp5040
I1
s(g35
g39
g15
tp5041
I117
s(g5
g27
g23
tp5042
I47
s(g14
g14
g17
tp5043
I10
s(g50
g39
g35
tp5044
I2
s(g27
g26
g12
tp5045
I901
s(g8
g18
g21
tp5046
I110
s(g10
g10
g10
tp5047
I96
s(g10
g8
g21
tp5048
I129
s(g21
g4
g14
tp5049
I1
s(g26
g39
g4
tp5050
I1
s(g6
g12
g27
tp5051
I4
s(g26
g17
g50
tp5052
I2
s(g4
g69
g17
tp5053
I31
s(g6
g9
g69
tp5054
I3
s(g74
g21
g9
tp5055
I4
s(g39
g106
g17
tp5056
I11
s(g14
g26
g15
tp5057
I1
s(g26
g23
g23
tp5058
I3
s(g15
g8
g5
tp5059
I6
s(g6
g21
g106
tp5060
I27
s(g17
g18
g10
tp5061
I187
s(g30
g26
g21
tp5062
I2
s(g6
g30
g26
tp5063
I48
s(g21
g15
g27
tp5064
I15
s(g50
g5
g15
tp5065
I6
s(g50
g5
g25
tp5066
I11
s(g8
g39
g21
tp5067
I10
s(g39
g31
g35
tp5068
I1
s(g18
g14
g25
tp5069
I1
s(g26
g50
g5
tp5070
I50
s(g21
g31
g27
tp5071
I38
s(g39
g26
g4
tp5072
I26
s(g5
g15
g26
tp5073
I881
s(g26
g14
g21
tp5074
I91
s(g26
g8
g31
tp5075
I34
s(g27
g39
g14
tp5076
I92
s(g171
g4
g26
tp5077
I56
s(g10
g21
g18
tp5078
I3261
s(g50
g39
g4
tp5079
I10
s.