(dp0
(S'n'
p1
tp2
I72580
s(S'b'
p3
tp4
I17299
s(S'd'
p5
tp6
I47286
s(S'q'
p7
tp8
I1243
s(S'f'
p9
tp10
I23283
s(S's'
p11
tp12
I66976
s(S'u'
p13
tp14
I31240
s(S'w'
p15
tp16
I24030
s(S'i'
p17
tp18
I76230
s(S'k'
p19
tp20
I11585
s(S'm'
p21
tp22
I25882
s(S'o'
p23
tp24
I83978
s(S'x'
p25
tp26
I1754
s(S'a'
p27
tp28
I89647
s(S'z'
p29
tp30
I1268
s(S'c'
p31
tp32
I28616
s(S'e'
p33
tp34
I132092
s(S'g'
p35
tp36
I25533
s(S'p'
p37
tp38
I20257
s(S'r'
p39
tp40
I66700
s(S't'
p41
tp42
I97290
s(S'v'
p43
tp44
I9459
s(S'h'
p45
tp46
I67366
s(S'j'
p47
tp48
I1881
s(S'l'
p49
tp50
I46345
s(S'y'
p51
tp52
I23877
s.