ccollections
defaultdict
p0
(c__builtin__
int
p1
tp2
Rp3
(S'n'
p4
tp5
I72580
s(S'b'
p6
tp7
I17299
s(S'd'
p8
tp9
I47286
s(S'q'
p10
tp11
I1243
s(S'f'
p12
tp13
I23283
s(S's'
p14
tp15
I66976
s(S'u'
p16
tp17
I31240
s(S'w'
p18
tp19
I24030
s(S'i'
p20
tp21
I76230
s(S'k'
p22
tp23
I11585
s(S'm'
p24
tp25
I25882
s(S'o'
p26
tp27
I83978
s(S'x'
p28
tp29
I1754
s(S'a'
p30
tp31
I89647
s(S'z'
p32
tp33
I1268
s(S'c'
p34
tp35
I28616
s(S'e'
p36
tp37
I132092
s(S'g'
p38
tp39
I25533
s(S'p'
p40
tp41
I20257
s(S'r'
p42
tp43
I66700
s(S't'
p44
tp45
I97290
s(S'v'
p46
tp47
I9459
s(S'h'
p48
tp49
I67366
s(S'j'
p50
tp51
I1881
s(S'l'
p52
tp53
I46345
s(S'y'
p54
tp55
I23877
s.