ccollections
defaultdict
p0
(c__builtin__
int
p1
tp2
Rp3
(S'n'
p4
tp5
I88451
s(S'b'
p6
tp7
I21520
s(S'd'
p8
tp9
I54978
s(S'q'
p10
tp11
I1508
s(S'f'
p12
tp13
I28302
s(S's'
p14
tp15
I81562
s(S'u'
p16
tp17
I37818
s(S'w'
p18
tp19
I28459
s(S'i'
p20
tp21
I92717
s(S'k'
p22
tp23
I13434
s(S'm'
p24
tp25
I31954
s(S'o'
p26
tp27
I102376
s(S'x'
p28
tp29
I2346
s(S'a'
p30
tp31
I108112
s(S'z'
p32
tp33
I1566
s(S'c'
p34
tp35
I35649
s(S'e'
p36
tp37
I159574
s(S'g'
p38
tp39
I30357
s(S'p'
p40
tp41
I25063
s(S'r'
p42
tp43
I80622
s(S't'
p44
tp45
I117654
s(S'v'
p46
tp47
I11853
s(S'h'
p48
tp49
I78327
s(S'j'
p50
tp51
I2421
s(S'l'
p52
tp53
I56496
s(S'y'
p54
tp55
I28737
s.